******************************************************************************
                  TI ARM Linker Unix v16.9.0                   
******************************************************************************
>> Linked Wed Mar  8 11:54:23 2017

OUTPUT FILE NAME:   <rfWsnNode_CC1310_LAUNCHXL_tirtos_ccs.out>
ENTRY POINT SYMBOL: "ResetISR"  address: 00007245


MEMORY CONFIGURATION

         name            origin    length      used     unused   attr    fill
----------------------  --------  ---------  --------  --------  ----  --------
  FLASH                 00000000   00020000  0000b408  00014bf8  R  X
  SRAM                  20000000   00005000  00002801  000027ff  RW X


SEGMENT ALLOCATION MAP

run origin  load origin   length   init length attrs members
----------  ----------- ---------- ----------- ----- -------
00000000    00000000    00000450   00000450    r--
  00000000    00000000    0000003c   0000003c    r-- .resetVecs
  00000040    00000040    00000410   00000410    r-- .cinit
00001000    00001000    0000af70   0000af70    r-x
  00001000    00001000    0000003c   0000003c    r-- .const:ti_sysbios_knl_Task_Object__PARAMS__C
  0000103c    0000103c    00000034   00000034    r-- .const:ti_sysbios_knl_Mailbox_Object__PARAMS__C
  00001070    00001070    00000030   00000030    r-- .const:ti_sysbios_family_arm_m3_Hwi_Object__PARAMS__C
  000010a0    000010a0    0000002c   0000002c    r-- .const:ti_sysbios_hal_Hwi_Object__PARAMS__C
  000010cc    000010cc    00000028   00000028    r-- .const:ti_sysbios_heaps_HeapMem_Module__FXNS__C
  000010f4    000010f4    00000028   00000028    r-- .const:ti_sysbios_knl_Swi_Object__PARAMS__C
  0000111c    0000111c    00000024   00000024    r-- .const:ti_sysbios_gates_GateHwi_Module__FXNS__C
  00001140    00001140    00000024   00000024    r-- .const:ti_sysbios_gates_GateMutex_Module__FXNS__C
  00001164    00001164    00000024   00000024    r-- .const:ti_sysbios_heaps_HeapMem_Object__PARAMS__C
  00001188    00001188    00000024   00000024    r-- .const:ti_sysbios_knl_Clock_Object__PARAMS__C
  000011ac    000011ac    00000024   00000024    r-- .const:ti_sysbios_knl_Semaphore_Object__PARAMS__C
  000011d0    000011d0    00000020   00000020    r-- .const:ti_sysbios_family_arm_m3_Hwi_Object__DESC__C
  000011f0    000011f0    00000020   00000020    r-- .const:ti_sysbios_gates_GateHwi_Object__DESC__C
  00001210    00001210    00000020   00000020    r-- .const:ti_sysbios_gates_GateMutex_Object__DESC__C
  00001230    00001230    00000020   00000020    r-- .const:ti_sysbios_hal_Hwi_Object__DESC__C
  00001250    00001250    00000020   00000020    r-- .const:ti_sysbios_heaps_HeapMem_Object__DESC__C
  00001270    00001270    00000020   00000020    r-- .const:ti_sysbios_knl_Clock_Object__DESC__C
  00001290    00001290    00000020   00000020    r-- .const:ti_sysbios_knl_Mailbox_Object__DESC__C
  000012b0    000012b0    00000020   00000020    r-- .const:ti_sysbios_knl_Queue_Object__DESC__C
  000012d0    000012d0    00000020   00000020    r-- .const:ti_sysbios_knl_Semaphore_Object__DESC__C
  000012f0    000012f0    00000020   00000020    r-- .const:ti_sysbios_knl_Swi_Object__DESC__C
  00001310    00001310    00000020   00000020    r-- .const:ti_sysbios_knl_Task_Object__DESC__C
  00001330    00001330    00000018   00000018    r-- .const:ti_sysbios_gates_GateHwi_Object__PARAMS__C
  00001348    00001348    00000018   00000018    r-- .const:ti_sysbios_gates_GateMutex_Object__PARAMS__C
  00001360    00001360    00000018   00000018    r-- .const:ti_sysbios_knl_Queue_Object__PARAMS__C
  00001378    00001378    00000008   00000008    r-- .const:ti_sysbios_knl_Idle_funcList__C
  00001384    00001384    00000004   00000004    r-- .const:ti_sysbios_family_arm_cc26xx_Timer_startupNeeded__C
  00001388    00001388    00000004   00000004    r-- .const:ti_sysbios_family_arm_m3_Hwi_E_alreadyDefined__C
  0000138c    0000138c    00000004   00000004    r-- .const:ti_sysbios_family_arm_m3_Hwi_E_hwiLimitExceeded__C
  00001390    00001390    00000004   00000004    r-- .const:ti_sysbios_family_arm_m3_Hwi_NUM_INTERRUPTS__C
  00001394    00001394    00000004   00000004    r-- .const:ti_sysbios_family_arm_m3_Hwi_Object__count__C
  00001398    00001398    00000004   00000004    r-- .const:ti_sysbios_family_arm_m3_Hwi_Object__table__C
  0000139c    0000139c    00000004   00000004    r-- .const:ti_sysbios_family_arm_m3_Hwi_ccr__C
  000013a0    000013a0    00000004   00000004    r-- .const:ti_sysbios_family_arm_m3_Hwi_excHandlerFunc__C
  000013a4    000013a4    00000004   00000004    r-- .const:ti_sysbios_family_arm_m3_Hwi_nullIsrFunc__C
  000013a8    000013a8    00000004   00000004    r-- .const:ti_sysbios_family_arm_m3_Hwi_numSparseInterrupts__C
  000013ac    000013ac    00000004   00000004    r-- .const:ti_sysbios_family_arm_m3_Hwi_priGroup__C
  000013b0    000013b0    00000004   00000004    r-- .const:ti_sysbios_family_arm_m3_TaskSupport_stackAlignment__C
  000013b4    000013b4    00000004   00000004    r-- .const:ti_sysbios_heaps_HeapMem_E_memory__C
  000013b8    000013b8    00000004   00000004    r-- .const:ti_sysbios_heaps_HeapMem_Module__gateObj__C
  000013bc    000013bc    00000004   00000004    r-- .const:ti_sysbios_heaps_HeapMem_Object__count__C
  000013c0    000013c0    00000004   00000004    r-- .const:ti_sysbios_heaps_HeapMem_Object__table__C
  000013c4    000013c4    00000004   00000004    r-- .const:ti_sysbios_heaps_HeapMem_reqAlign__C
  000013c8    000013c8    00000004   00000004    r-- .const:ti_sysbios_knl_Clock_serviceMargin__C
  000013cc    000013cc    00000004   00000004    r-- .const:ti_sysbios_knl_Mailbox_Object__count__C
  000013d0    000013d0    00000004   00000004    r-- .const:ti_sysbios_knl_Mailbox_Object__table__C
  000013d4    000013d4    00000004   00000004    r-- .const:ti_sysbios_knl_Mailbox_maxTypeAlign__C
  000013d8    000013d8    00000004   00000004    r-- .const:ti_sysbios_knl_Queue_Object__count__C
  000013dc    000013dc    00000004   00000004    r-- .const:ti_sysbios_knl_Queue_Object__table__C
  000013e0    000013e0    00000004   00000004    r-- .const:ti_sysbios_knl_Swi_Object__count__C
  000013e4    000013e4    00000004   00000004    r-- .const:ti_sysbios_knl_Swi_Object__table__C
  000013e8    000013e8    00000004   00000004    r-- .const:ti_sysbios_knl_Swi_numPriorities__C
  000013ec    000013ec    00000004   00000004    r-- .const:ti_sysbios_knl_Task_Object__count__C
  000013f0    000013f0    00000004   00000004    r-- .const:ti_sysbios_knl_Task_Object__table__C
  000013f4    000013f4    00000004   00000004    r-- .const:ti_sysbios_knl_Task_allBlockedFunc__C
  000013f8    000013f8    00000004   00000004    r-- .const:ti_sysbios_knl_Task_defaultStackHeap__C
  000013fc    000013fc    00000004   00000004    r-- .const:ti_sysbios_knl_Task_defaultStackSize__C
  00001400    00001400    00000004   00000004    r-- .const:ti_sysbios_knl_Task_numConstructedTasks__C
  00001406    00001406    00000002   00000002    r-- .const:ti_sysbios_family_arm_cc26xx_Timer_Module__id__C
  00001408    00001408    00000002   00000002    r-- .const:ti_sysbios_family_arm_cc26xx_TimestampProvider_useClockTimer__C
  0000140a    0000140a    00000002   00000002    r-- .const:ti_sysbios_family_arm_m3_Hwi_Module__id__C
  0000140c    0000140c    00000002   00000002    r-- .const:ti_sysbios_gates_GateHwi_Module__id__C
  0000140e    0000140e    00000002   00000002    r-- .const:ti_sysbios_gates_GateMutex_Module__id__C
  00001410    00001410    00000002   00000002    r-- .const:ti_sysbios_heaps_HeapMem_Module__id__C
  00001412    00001412    00000002   00000002    r-- .const:ti_sysbios_knl_Task_initStackFlag__C
  00001414    00001414    00000001   00000001    r-- .const:ti_sysbios_knl_Clock_tickMode__C
  00001418    00001418    00000008   00000008    r-- .const:xdc_runtime_Startup_firstFxns__C
  00001420    00001420    00000008   00000008    r-- .const:xdc_runtime_Startup_lastFxns__C
  00001428    00001428    00000004   00000004    r-- .const:xdc_runtime_Assert_E_assertFailed__C
  0000142c    0000142c    00000004   00000004    r-- .const:xdc_runtime_Error_E_memory__C
  00001430    00001430    00000004   00000004    r-- .const:xdc_runtime_Error_policyFxn__C
  00001434    00001434    00000004   00000004    r-- .const:xdc_runtime_IGateProvider_Interface__BASE__C
  00001438    00001438    00000004   00000004    r-- .const:xdc_runtime_IHeap_Interface__BASE__C
  0000143c    0000143c    00000004   00000004    r-- .const:xdc_runtime_IModule_Interface__BASE__C
  00001440    00001440    00000004   00000004    r-- .const:xdc_runtime_Main_Module__diagsEnabled__C
  00001444    00001444    00000004   00000004    r-- .const:xdc_runtime_Main_Module__diagsIncluded__C
  00001448    00001448    00000004   00000004    r-- .const:xdc_runtime_Main_Module__diagsMask__C
  0000144c    0000144c    00000004   00000004    r-- .const:xdc_runtime_Memory_defaultHeapInstance__C
  00001450    00001450    00000004   00000004    r-- .const:xdc_runtime_Startup_execImpl__C
  00001454    00001454    00000004   00000004    r-- .const:xdc_runtime_Startup_maxPasses__C
  00001458    00001458    00000004   00000004    r-- .const:xdc_runtime_Startup_sfxnRts__C
  0000145c    0000145c    00000004   00000004    r-- .const:xdc_runtime_Startup_sfxnTab__C
  00001460    00001460    00000004   00000004    r-- .const:xdc_runtime_Startup_startModsFxn__C
  00001464    00001464    00000004   00000004    r-- .const:xdc_runtime_SysCallback_abortFxn__C
  00001468    00001468    00000004   00000004    r-- .const:xdc_runtime_SysCallback_exitFxn__C
  0000146c    0000146c    00000004   00000004    r-- .const:xdc_runtime_System_abortFxn__C
  00001470    00001470    00000004   00000004    r-- .const:xdc_runtime_System_exitFxn__C
  00001474    00001474    00000004   00000004    r-- .const:xdc_runtime_System_maxAtexitHandlers__C
  00001478    00001478    00000004   00000004    r-- .const:xdc_runtime_Text_charTab__C
  0000147c    0000147c    00000004   00000004    r-- .const:xdc_runtime_Text_nameEmpty__C
  00001480    00001480    00000004   00000004    r-- .const:xdc_runtime_Text_nameStatic__C
  00001484    00001484    00000004   00000004    r-- .const:xdc_runtime_Text_nameUnknown__C
  00001488    00001488    00000002   00000002    r-- .const:xdc_runtime_Main_Module__id__C
  0000148a    0000148a    00000002   00000002    r-- .const:xdc_runtime_Memory_Module__id__C
  0000148c    0000148c    00000002   00000002    r-- .const:xdc_runtime_Text_charCnt__C
  0000148e    0000148e    00000002   00000002    r-- .const:xdc_runtime_Text_isLoaded__C
  00001490    00001490    00000001   00000001    r-- .const:xdc_runtime_Error_policy__C
  00001494    00001494    00000004   00000004    r-- .const:ti_sysbios_rom_ROM_AONRTCChannelEnable
  00001498    00001498    00000004   00000004    r-- .const:ti_sysbios_rom_ROM_AONRTCCompareValueSet
  0000149c    0000149c    00000004   00000004    r-- .const:ti_sysbios_rom_ROM_AONRTCCurrentCompareValueGet
  000014a0    000014a0    00000004   00000004    r-- .const:ti_sysbios_rom_ROM_AONRTCEventClear
  000014a4    000014a4    00000004   00000004    r-- .const:ti_sysbios_rom_ROM_ti_sysbios_family_arm_cc26xx_Timer_getCount64__E
  000014a8    000014a8    00000004   00000004    r-- .const:ti_sysbios_rom_ROM_ti_sysbios_family_arm_cc26xx_Timer_getCurrentTick__E
  000014ac    000014ac    00000004   00000004    r-- .const:ti_sysbios_rom_ROM_ti_sysbios_family_arm_cc26xx_Timer_getMaxTicks__E
  000014b0    000014b0    00000004   00000004    r-- .const:ti_sysbios_rom_ROM_ti_sysbios_family_arm_cc26xx_Timer_initDevice__I
  000014b4    000014b4    00000004   00000004    r-- .const:ti_sysbios_rom_ROM_ti_sysbios_family_arm_cc26xx_Timer_setNextTick__E
  000014b8    000014b8    00000004   00000004    r-- .const:ti_sysbios_rom_ROM_ti_sysbios_family_arm_cc26xx_Timer_setThreshold__I
  000014bc    000014bc    00000004   00000004    r-- .const:ti_sysbios_rom_ROM_ti_sysbios_family_arm_cc26xx_Timer_start__E
  000014c0    000014c0    00000004   00000004    r-- .const:ti_sysbios_rom_ROM_ti_sysbios_family_arm_cc26xx_TimestampProvider_get32__E
  000014c4    000014c4    00000004   00000004    r-- .const:ti_sysbios_rom_ROM_xdc_runtime_Startup_getState__I
  000014c8    000014c8    00000004   00000004    r-- .const:ti_sysbios_rom_ROM_xdc_runtime_System_SupportProxy_abort__E
  000014cc    000014cc    00000004   00000004    r-- .const:ti_sysbios_rom_ROM_xdc_runtime_System_SupportProxy_exit__E
  000014d0    000014d0    00000004   00000004    r-- .const:ti_sysbios_gates_GateMutex_Instance_State_sem__O
  000014d4    000014d4    00000004   00000004    r-- .const:ti_sysbios_knl_Clock_Module_State_clockQ__O
  000014d8    000014d8    00000004   00000004    r-- .const:ti_sysbios_knl_Mailbox_Instance_State_dataQue__O
  000014dc    000014dc    00000004   00000004    r-- .const:ti_sysbios_knl_Mailbox_Instance_State_dataSem__O
  000014e0    000014e0    00000004   00000004    r-- .const:ti_sysbios_knl_Mailbox_Instance_State_freeQue__O
  000014e4    000014e4    00000004   00000004    r-- .const:ti_sysbios_knl_Mailbox_Instance_State_freeSem__O
  000014e8    000014e8    00000004   00000004    r-- .const:ti_sysbios_knl_Semaphore_Instance_State_pendQ__O
  000014ec    000014ec    00000004   00000004    r-- .const:ti_sysbios_knl_Task_Module_State_inactiveQ__O
  000014f0    000014f0    00007298   00007298    r-x .text
  00008788    00008788    000037e8   000037e8    r-- .const
0001ffa8    0001ffa8    00000058   00000058    r--
  0001ffa8    0001ffa8    00000058   00000058    r-- .ccfg
20000100    20000100    0000233d   00000000    rw-
  20000100    20000100    00000044   00000000    rw- .data:ti_sysbios_knl_Task_Module__state__V
  20000144    20000144    00000034   00000000    rw- .data:ti_sysbios_family_arm_m3_Hwi_Module__state__V
  20000178    20000178    0000002c   00000000    rw- .data:ti_sysbios_knl_Clock_Module__state__V
  200001a4    200001a4    00000024   00000000    rw- .data:ti_sysbios_BIOS_Module__state__V
  200001c8    200001c8    0000001c   00000000    rw- .data:ti_sysbios_knl_Swi_Module__state__V
  200001e4    200001e4    00000008   00000000    rw- .data:ti_sysbios_family_arm_cc26xx_Timer_Module__state__V
  200001ec    200001ec    00000004   00000000    rw- .data:ti_sysbios_family_arm_cc26xx_TimestampProvider_Module__state__V
  200001f0    200001f0    00000008   00000000    rw- .data:xdc_runtime_Startup_Module__state__V
  200001f8    200001f8    00000008   00000000    rw- .data:xdc_runtime_System_Module__state__V
  20000200    20000200    00000004   00000000    rw- .data:xdc_runtime_Memory_Module__state__V
  20000208    20000208    00000a8a   00000000    rw- .data
  20000c98    20000c98    000017a5   00000000    rw- .bss
20004c00    20004c00    00000400   00000000    rw-
  20004c00    20004c00    00000400   00000000    rw- .stack


SECTION ALLOCATION MAP

 output                                  attributes/
section   page    origin      length       input sections
--------  ----  ----------  ----------   ----------------
.text      0    000014f0    00007298     
                  000014f0    00000398     rf_multiMode_cc13x0.aem3 : RFCC26XX_multiMode.oem3 (.text:fsmActiveState)
                  00001888    00000348     EasyLink.obj (.text:EasyLink_init)
                  00001bd0    0000030c     drivers_cc13x0.aem3 : PowerCC26XX_calibrateRCOSC.oem3 (.text:PowerCC26XX_auxISR)
                  00001edc    0000022c                         : PowerCC26XX.oem3 (.text:Power_sleep)
                  00002108    00000228     driverlib.lib : sys_ctrl.obj (.text:NOROM_SysCtrlSetRechargeBeforePowerDown)
                  00002330    000001f4     rtsv7M3_T_le_eabi.lib : ull_div_t2.obj (.text)
                  00002524    000001d4     NodeRadioTask.obj (.text:nodeRadioTaskFunction)
                  000026f8    000001b4     drivers_cc13x0.aem3 : PINCC26XX.oem3 (.text:PIN_init)
                  000028ac    00000198                         : PowerCC26XX_calibrateRCOSC.oem3 (.text:PowerCC26XX_doCalibrate)
                  00002a44    00000198                         : UARTCC26XX.oem3 (.text:UARTCC26XX_open)
                  00002bdc    00000190     rf_multiMode_cc13x0.aem3 : RFCC26XX_multiMode.oem3 (.text:fsmSetupState)
                  00002d6c    0000018c     EasyLink.obj (.text:rxDoneCallback)
                  00002ef8    00000174     NodeRadioTask.obj (.text:sendDmPacket)
                  0000306c    00000170     EasyLink.obj (.text:EasyLink_receiveAsync)
                  000031dc    00000160     EasyLink.obj (.text:enableTestMode)
                  0000333c    00000154     rf_multiMode_cc13x0.aem3 : RFCC26XX_multiMode.oem3 (.text:RF_postCmd)
                  00003490    00000150     smartrf_settings_predefined.obj (.text:rf_patch_mce_genook)
                  000035e0    00000140     EasyLink.obj (.text:EasyLink_transmit)
                  00003720    0000013c     rf_multiMode_cc13x0.aem3 : RFCC26XX_multiMode.oem3 (.text:fsmChangePhyState)
                  0000385c    00000134     drivers_cc13x0.aem3 : PowerCC26XX.oem3 (.text:Power_init)
                  00003990    00000130     driverlib.lib : setup_rom.obj (.text:NOROM_SetupAfterColdResetWakeupFromShutDownCfg3)
                  00003ac0    00000128     smartrf_settings.obj (.text:rf_patch_rfe_genfsk)
                  00003be8    00000128     smartrf_settings_predefined.obj (.text:rf_patch_rfe_genfsk)
                  00003d10    00000128     smartrf_settings_predefined.obj (.text:rf_patch_rfe_lrm)
                  00003e38    00000124     rf_multiMode_cc13x0.aem3 : RFCC26XX_multiMode.oem3 (.text:radioOpDoneCb)
                  00003f5c    0000011c                              : RFCC26XX_multiMode.oem3 (.text:rf_init)
                  00004078    00000118     drivers_cc13x0.aem3 : UARTCC26XX.oem3 (.text:UARTCC26XX_read)
                  00004190    00000118     rf_multiMode_cc13x0.aem3 : RFCC26XX_multiMode.oem3 (.text:hwiFxnCpe0Active)
                  000042a8    00000114     smartrf_settings_predefined.obj (.text:rf_patch_mce_hsp_4mbps)
                  000043bc    0000010a     drivers_cc13x0.aem3 : UARTCC26XX.oem3 (.text:UARTCC26XX_hwiIntFxn)
                  000044c6    00000002     rf_multiMode_cc13x0.aem3 : RFCC26XX_multiMode.oem3 (.text:defaultErrCb)
                  000044c8    00000108                              : RFCC26XX_multiMode.oem3 (.text:RF_close)
                  000045d0    000000fc     drivers_cc13x0.aem3 : UARTCC26XX.oem3 (.text:UARTCC26XX_write)
                  000046cc    000000f0                         : GPIOCC26XX.oem3 (.text:GPIO_setConfig)
                  000047bc    000000f0     driverlib.lib : setup_rom.obj (.text:NOROM_SetupAfterColdResetWakeupFromShutDownCfg2)
                  000048ac    000000f0     rf_multiMode_cc13x0.aem3 : RFCC26XX_multiMode.oem3 (.text:RF_open)
                  0000499c    000000e8     rom_sysbios.aem3 : rom_sysbios.obj (.text:ti_sysbios_knl_Event_pend__E)
                  00004a84    000000dc     drivers_cc13x0.aem3 : PINCC26XX.oem3 (.text:PINCC26XX_setIoCfg)
                  00004b60    000000d8     EasyLink.obj (.text:EasyLink_enableRxAddrFilter)
                  00004c38    000000d8     driverlib.lib : rfc.obj (.text:NOROM_RFCRTrim)
                  00004d10    000000d8     smartrf_settings_predefined.obj (.text:rf_patch_rfe_genook)
                  00004de8    000000d8     smartrf_settings_predefined.obj (.text:rf_patch_rfe_hsp_4mbps)
                  00004ec0    000000d4     driverlib.lib : rfc.obj (.text:NOROM_RFCRfTrimRead)
                  00004f94    000000d0     dpl_cc13x0.aem3 : PowerCC26XX_tirtos.oem3 (.text:PowerCC26XX_standbyPolicy)
                  00005064    000000cc     drivers_cc13x0.aem3 : PowerCC26XX.oem3 (.text:Power_releaseDependency)
                  00005130    000000c4                         : PowerCC26XX.oem3 (.text:Power_setDependency)
                  000051f4    000000c4     driverlib.lib : setup.obj (.text:TrimAfterColdResetWakeupFromShutDown)
                  000052b8    000000c0     EasyLink.obj (.text:EasyLink_setCtrl)
                  00005378    000000bc     drivers_cc13x0.aem3 : UARTCC26XX.oem3 (.text:UARTCC26XX_initHw)
                  00005434    000000bc     rf_multiMode_cc13x0.aem3 : RFCC26XX_multiMode.oem3 (.text:fsmPowerUpState)
                  000054f0    000000b8                              : RFCC26XX_multiMode.oem3 (.text:fsmPowerDownState)
                  000055a8    000000ac     NodeRadioTask.obj (.text:NodeRadioTask_init)
                  00005654    000000a8     driverlib.lib : setup.obj (.text:NOROM_SetupTrimDevice)
                  000056fc    000000a4                   : setup_rom.obj (.text:NOROM_SetupAfterColdResetWakeupFromShutDownCfg1)
                  000057a0    000000a0     auto_init.aem3 : auto_init.oem3 (.text)
                  00005840    0000009c     NodeTask.obj (.text:NodeTask_init)
                  000058dc    0000009c     rtsv7M3_T_le_eabi.lib : memcpy_t2.obj (.text)
                  00005978    00000098     drivers_cc13x0.aem3 : PINCC26XX.oem3 (.text:PIN_open)
                  00005a10    00000098                         : UARTCC26XX.oem3 (.text:UARTCC26XX_initIO)
                  00005aa8    00000098     rom_sysbios.aem3 : rom_sysbios.obj (.text:ti_sysbios_knl_Clock_workFuncDynamic__E)
                  00005b40    00000094     NodeTask.obj (.text:nodeTaskFunction)
                  00005bd4    00000094     drivers_cc13x0.aem3 : UARTCC26XX.oem3 (.text:writeFinishedDoCallback)
                  00005c68    0000008c                         : UARTCC26XX.oem3 (.text:UARTCC26XX_writeCancel)
                  00005cf4    0000008c     rf_multiMode_cc13x0.aem3 : RFCC26XX_multiMode.oem3 (.text:swiFxnHw)
                  00005d80    00000088                              : RFCC26XX_multiMode.oem3 (.text:RF_pendCmd)
                  00005e08    00000088     drivers_cc13x0.aem3 : PowerCC26XX.oem3 (.text:disableLFClockQualifiers)
                  00005e90    00000084     rf_multiMode_cc13x0.aem3 : RFCC26XX_multiMode.oem3 (.text:RF_issueRadioFreeCb)
                  00005f14    00000084     drivers_cc13x0.aem3 : PowerCC26XX.oem3 (.text:switchXOSCHFclockFunc)
                  00005f98    0000007c                         : GPIOCC26XX.oem3 (.text:GPIO_init)
                  00006014    0000007a     rtsv7M3_T_le_eabi.lib : memset_t2.obj (.text)
                  0000608e    00000078     drivers_cc13x0.aem3 : UARTCC26XX.oem3 (.text:writeTxFifoFlush)
                  00006106    00000002                         : PowerCC26XX.oem3 (.text:emptyClockFunc)
                  00006108    00000074     driverlib.lib : setup_rom.obj (.text:NOROM_SetupSetVddrLevel)
                  0000617c    00000074     drivers_cc13x0.aem3 : UARTCC26XX.oem3 (.text:UARTCC26XX_close)
                  000061f0    00000074     NodeRadioTask.obj (.text:resendPacket)
                  00006264    00000074     rom_sysbios.aem3 : rom_sysbios.obj (.text:ti_sysbios_family_arm_cc26xx_Timer_start__E)
                  000062d8    00000070     NodeTask.obj (.text:commissionTaskFunction)
                  00006348    00000070     scif_framework.obj (.text:scifGetTaskStruct)
                  000063b8    00000070     rom_sysbios.aem3 : rom_sysbios.obj (.text:ti_sysbios_knl_Event_post__E)
                  00006428    0000006c     driverlib.lib : setup_rom.obj (.text:NOROM_SetupGetTrimForAmpcompCtrl)
                  00006494    0000006c     drivers_cc13x0.aem3 : PowerCC26XX.oem3 (.text:PowerCC26XX_calibrate)
                  00006500    0000006c     NodeTask.obj (.text:commissionTask_init)
                  0000656c    00000068     driverlib.lib : setup_rom.obj (.text:NOROM_SetupGetTrimForAnabypassValue1)
                  000065d4    00000068                   : sys_ctrl.obj (.text:NOROM_SysCtrl_DCDC_VoltageConditionalControl)
                  0000663c    00000068     drivers_cc13x0.aem3 : PowerCC26XX_calibrateRCOSC.oem3 (.text:PowerCC26XX_initiateCalibration)
                  000066a4    00000068                         : UARTCC26XX.oem3 (.text:UARTCC26XX_readCancel)
                  0000670c    00000068     rtsv7M3_T_le_eabi.lib : copy_decompress_lzss.obj (.text:decompress:lzss)
                  00006774    00000064     driverlib.lib : osc.obj (.text:NOROM_OSCHF_AttemptToSwitchToXosc)
                  000067d8    00000064     drivers_cc13x0.aem3 : PINCC26XX.oem3 (.text:PIN_add)
                  0000683c    00000064     rf_multiMode_cc13x0.aem3 : RFCC26XX_multiMode.oem3 (.text:dispatchOpWhen)
                  000068a0    00000060     driverlib.lib : osc.obj (.text:NOROM_OSCClockSourceSet)
                  00006900    00000060     drivers_cc13x0.aem3 : UARTCC26XX.oem3 (.text:UARTCC26XX_control)
                  00006960    0000005c     driverlib.lib : sys_ctrl.obj (.text:NOROM_SysCtrlAdjustRechargeAfterPowerDown)
                  000069bc    0000005c     NodeRadioTask.obj (.text:NodeRadioTask_sendAdcData)
                  00006a18    0000005c     drivers_cc13x0.aem3 : PowerCC26XX_calibrateRCOSC.oem3 (.text:PowerCC26XX_RCOSC_clockFunc)
                  00006a74    0000005c     smartrf_settings.obj (.text:configureGenfskPatch)
                  00006ad0    0000005c     smartrf_settings_predefined.obj (.text:configureGenfskPatch)
                  00006b2c    0000005c     smartrf_settings_predefined.obj (.text:configureGenookPatch)
                  00006b88    0000005c     smartrf_settings_predefined.obj (.text:configureLrmPatch)
                  00006be4    0000005c     rf_multiMode_cc13x0.aem3 : RFCC26XX_multiMode.oem3 (.text:fsmXOSCState)
                  00006c40    0000005c     rom_sysbios.aem3 : rom_sysbios.obj (.text:ti_sysbios_heaps_HeapMem_initPrimary__I)
                  00006c9c    0000005c     release_pem3.oem3 (.text:xdc_runtime_Startup_getState__I)
                  00006cf8    00000058     drivers_cc13x0.aem3 : PINCC26XX.oem3 (.text:PIN_remove)
                  00006d50    00000058     rf_multiMode_cc13x0.aem3 : RFCC26XX_multiMode.oem3 (.text:applyRfCorePatch)
                  00006da8    00000058                              : RFCC26XX_multiMode.oem3 (.text:ratChanFree)
                  00006e00    00000058     NodeRadioTask.obj (.text:rxDoneCallback)
                  00006e58    00000054     drivers_cc13x0.aem3 : GPIOCC26XX.oem3 (.text:GPIO_write)
                  00006eac    00000054     rf_multiMode_cc13x0.aem3 : RFCC26XX_multiMode.oem3 (.text:RF_getCurrentTime)
                  00006f00    00000054     drivers_cc13x0.aem3 : PowerCC26XX.oem3 (.text:configureXOSCHF)
                  00006f54    00000054     rf_multiMode_cc13x0.aem3 : RFCC26XX_multiMode.oem3 (.text:hwiFxnHw)
                  00006fa8    00000050     driverlib.lib : setup_rom.obj (.text:NOROM_SetupSetCacheModeAccordingToCcfgSetting)
                  00006ff8    00000050     drivers_cc13x0.aem3 : UARTCC26XX.oem3 (.text:startTxFifoEmptyClk)
                  00007048    00000050     rf_multiMode_cc13x0.aem3 : RFCC26XX_multiMode.oem3 (.text:syncCb)
                  00007098    0000004c     drivers_cc13x0.aem3 : GPIOCC26XX.oem3 (.text:powerPostNotify)
                  000070e4    0000004c     rtsv7M3_T_le_eabi.lib : cpy_tbl.obj (.text)
                  00007130    00000048     drivers_cc13x0.aem3 : PINCC26XX.oem3 (.text:PIN_setOutputEnable)
                  00007178    00000044                         : PINCC26XX.oem3 (.text:PIN_swi)
                  000071bc    00000044     rf_multiMode_cc13x0.aem3 : RFCC26XX_multiMode.oem3 (.text:RF_releasePowerConstraint)
                  00007200    00000044     drivers_cc13x0.aem3 : RingBuf.oem3 (.text:RingBuf_put)
                  00007244    00000044     boot.aem3 : boot.oem3 (.text)
                  00007288    00000044     drivers_cc13x0.aem3 : PowerCC26XX.oem3 (.text:notify)
                  000072cc    00000040                         : UART.oem3 (.text:UART_init)
                  0000730c    00000040                         : UART.oem3 (.text:UART_open)
                  0000734c    0000003e                         : RingBuf.oem3 (.text:RingBuf_get)
                  0000738a    00000002     smartrf_settings.obj (.text:enterGenfskSysPatch)
                  0000738c    0000003c     drivers_cc13x0.aem3 : GPIOCC26XX.oem3 (.text:GPIO_enableInt)
                  000073c8    0000003c     driverlib.lib : chipinfo.obj (.text:NOROM_ChipInfo_GetHwRevision)
                  00007404    0000003c                   : osc.obj (.text:NOROM_OSC_HPOSCRelativeFrequencyOffsetGet)
                  00007440    0000003c                   : rfc.obj (.text:NOROM_RFCSynthPowerDown)
                  0000747c    0000003c     rf_multiMode_cc13x0.aem3 : RFCC26XX_multiMode.oem3 (.text:RF_runCmd)
                  000074b8    00000038     drivers_cc13x0.aem3 : PINCC26XX.oem3 (.text:PIN_setOutputValue)
                  000074f0    00000038     rf_multiMode_cc13x0.aem3 : RFCC26XX_multiMode.oem3 (.text:Q_end)
                  00007528    00000038     drivers_cc13x0.aem3 : UARTCC26XX.oem3 (.text:UARTCC26XX_swiIntFxn)
                  00007560    00000038     NodeTask.obj (.text:gpioButtonFxn1)
                  00007598    00000038     drivers_cc13x0.aem3 : UARTCC26XX.oem3 (.text:readData)
                  000075d0    00000038                         : UARTCC26XX.oem3 (.text:writeData)
                  00007608    00000034     CC1310_LAUNCHXL.obj (.text:CC1310_LAUNCHXL_initGeneral)
                  0000763c    00000034     drivers_cc13x0.aem3 : GPIOCC26XX.oem3 (.text:GPIO_setCallback)
                  00007670    00000034                         : GPIOCC26XX.oem3 (.text:GPIO_toggle)
                  000076a4    00000034     driverlib.lib : osc.obj (.text:NOROM_OSCHF_SwitchToRcOscTurnOffXosc)
                  000076d8    00000034     drivers_cc13x0.aem3 : PINCC26XX.oem3 (.text:PIN_setConfig)
                  0000770c    00000034     rf_multiMode_cc13x0.aem3 : RFCC26XX_multiMode.oem3 (.text:Q_push)
                  00007740    00000034     rom_sysbios.aem3 : rom_sysbios.obj (.text:ti_sysbios_family_arm_cc26xx_Timer_initDevice__I)
                  00007774    00000032                      : rom_sysbios.obj (.text:ti_sysbios_family_arm_cc26xx_Timer_setNextTick__E)
                  000077a6    00000002     smartrf_settings_predefined.obj (.text:enterGenfskSysPatch)
                  000077a8    00000030     driverlib.lib : chipinfo.obj (.text:NOROM_ChipInfo_GetChipType)
                  000077d8    00000030                   : setup_rom.obj (.text:NOROM_SetupSetAonRtcSubSecInc)
                  00007808    00000030     drivers_cc13x0.aem3 : PowerCC26XX.oem3 (.text:Power_releaseConstraint)
                  00007838    00000030                         : PowerCC26XX.oem3 (.text:Power_setConstraint)
                  00007868    00000030     rf_multiMode_cc13x0.aem3 : RFCC26XX_multiMode.oem3 (.text:clkPowerUpFxn)
                  00007898    00000030     drivers_cc13x0.aem3 : UARTCC26XX.oem3 (.text:readData2RingBuf)
                  000078c8    00000030     release_pem3.oem3 (.text:ti_sysbios_BIOS_atExitFunc__I)
                  000078f8    00000030     release_pem3.oem3 (.text:ti_sysbios_BIOS_startFunc__I)
                  00007928    00000030     rom_sysbios.aem3 : rom_sysbios.obj (.text:ti_sysbios_family_arm_cc26xx_Timer_getCurrentTick__E)
                  00007958    00000030                      : rom_sysbios.obj (.text:ti_sysbios_family_arm_cc26xx_Timer_setThreshold__I)
                  00007988    0000002c     drivers_cc13x0.aem3 : GPIOCC26XX.oem3 (.text:GPIO_read)
                  000079b4    0000002c     driverlib.lib : ddi.obj (.text:NOROM_DDI32RegWrite)
                  000079e0    0000002c                   : osc.obj (.text:NOROM_OSCClockSourceGet)
                  00007a0c    0000002c                   : rfc.obj (.text:NOROM_RFCCPEPatchReset)
                  00007a38    0000002c                   : setup_rom.obj (.text:NOROM_SetupGetTrimForRadcExtCfg)
                  00007a64    0000002c     drivers_cc13x0.aem3 : PINCC26XX.oem3 (.text:PINCC26XX_setMux)
                  00007a90    0000002c     EasyLink.obj (.text:asyncCmdCallback)
                  00007abc    0000002c     rf_multiMode_cc13x0.aem3 : RFCC26XX_multiMode.oem3 (.text:getCmd)
                  00007ae8    0000002c     rom_sysbios.aem3 : rom_sysbios.obj (.text:ti_sysbios_knl_Clock_getTicksUntilInterrupt__E)
                  00007b14    0000002c     release_pem3.oem3 (.text:ti_sysbios_knl_Event_construct)
                  00007b40    0000002c     rom_sysbios.aem3 : rom_sysbios.obj (.text:ti_sysbios_knl_Event_pendTimeout__I)
                  00007b6c    00000028     driverlib.lib : aon_batmon.obj (.text:NOROM_AONBatMonTemperatureGetDegC)
                  00007b94    00000028     drivers_cc13x0.aem3 : PowerCC26XX.oem3 (.text:Power_registerNotify)
                  00007bbc    00000028     driverlib.lib : adi.obj (.text:SafeHapiVoid)
                  00007be4    00000024     drivers_cc13x0.aem3 : GPIOCC26XX.oem3 (.text:GPIO_hwiIntFxn)
                  00007c08    00000024                         : PINCC26XX.oem3 (.text:PINCC26XX_getPinCount)
                  00007c2c    00000024     SceAdc.obj (.text:SceAdc_setReportInterval)
                  00007c50    00000024     rf_multiMode_cc13x0.aem3 : RFCC26XX_multiMode.oem3 (.text:allocCmd)
                  00007c74    00000024                              : RFCC26XX_multiMode.oem3 (.text:hwiFxnCpe0PowerFsm)
                  00007c98    00000024     release_pem3.oem3 (.text:ti_sysbios_BIOS_registerRTSLock__I)
                  00007cbc    00000024     release_pem3.oem3 (.text:ti_sysbios_BIOS_removeRTSLock__I)
                  00007ce0    00000024     rom_sysbios.aem3 : rom_sysbios.obj (.text:ti_sysbios_family_arm_cc26xx_Timer_getMaxTicks__E)
                  00007d04    00000022     drivers_cc13x0.aem3 : List.oem3 (.text:List_put)
                  00007d26    00000002     smartrf_settings_predefined.obj (.text:enterGenookSysPatch)
                  00007d28    00000020     driverlib.lib : rfc.obj (.text:NOROM_RFCAdi3VcoLdoVoltageMode)
                  00007d48    00000020                   : rfc.obj (.text:NOROM_RFCDoorbellSendTo)
                  00007d68    00000020                   : setup_rom.obj (.text:NOROM_SetupGetTrimForXoscHfCtl)
                  00007d88    00000020     drivers_cc13x0.aem3 : PowerCC26XX.oem3 (.text:Power_unregisterNotify)
                  00007da8    00000020     NodeRadioTask.obj (.text:returnRadioOperationStatus)
                  00007dc8    00000020     release_pem3.oem3 (.text:ti_sysbios_BIOS_rtsLock__I)
                  00007de8    00000020     rom_sysbios.aem3 : rom_sysbios.obj (.text:ti_sysbios_family_arm_cc26xx_Timer_dynamicStub__E)
                  00007e08    00000020                      : rom_sysbios.obj (.text:ti_sysbios_knl_Clock_stop__E)
                  00007e28    00000020                      : rom_sysbios.obj (.text:ti_sysbios_knl_Event_checkEvents__I)
                  00007e48    0000001e     drivers_cc13x0.aem3 : PINCC26XX.oem3 (.text:PIN_close)
                  00007e66    0000001e                         : PowerCC26XX.oem3 (.text:Power_getTransitionLatency)
                  00007e84    0000001c     driverlib.lib : chipinfo.obj (.text:NOROM_ChipInfo_GetChipFamily)
                  00007ea0    0000001c                   : setup_rom.obj (.text:NOROM_SetupGetTrimForAmpcompTh2)
                  00007ebc    0000001c                   : setup_rom.obj (.text:NOROM_SetupGetTrimForRcOscLfRtuneCtuneTrim)
                  00007ed8    0000001c     drivers_cc13x0.aem3 : PINCC26XX.oem3 (.text:PINCC26XX_setIoCfgMux)
                  00007ef4    0000001c                         : PINCC26XX.oem3 (.text:PIN_hwi)
                  00007f10    0000001c     rf_multiMode_cc13x0.aem3 : RFCC26XX_multiMode.oem3 (.text:RF_setPowerConstraint)
                  00007f2c    0000001c                              : RFCC26XX_multiMode.oem3 (.text:clkInactivityFxn)
                  00007f48    0000001c     smartrf_settings.obj (.text:enterGenfskCpePatch)
                  00007f64    0000001c     smartrf_settings_predefined.obj (.text:enterGenfskCpePatch)
                  00007f80    0000001c     smartrf_settings_predefined.obj (.text:enterGenookCpePatch)
                  00007f9c    0000001c     smartrf_settings_predefined.obj (.text:enterLrmCpePatch)
                  00007fb8    0000001c     rf_multiMode_cc13x0.aem3 : RFCC26XX_multiMode.oem3 (.text:hwiFxnCpe0ChangePhy)
                  00007fd4    0000001a     drivers_cc13x0.aem3 : List.oem3 (.text:List_remove)
                  00007fee    0000001a     rfWsnNode.obj (.text:main)
                  00008008    00000018     driverlib.lib : aon_rtc.obj (.text:NOROM_AONRTCCurrentCompareValueGet)
                  00008020    00000018                   : chipinfo.obj (.text:NOROM_ChipInfo_GetPackageType)
                  00008038    00000018                   : osc.obj (.text:NOROM_OSCHF_TurnOnXosc)
                  00008050    00000018                   : rfc.obj (.text:NOROM_RFCCpeIntGetAndClear)
                  00008068    00000018                   : setup_rom.obj (.text:NOROM_SetupGetTrimForAdcShModeEn)
                  00008080    00000018                   : setup_rom.obj (.text:NOROM_SetupGetTrimForAdcShVbufEn)
                  00008098    00000018                   : setup_rom.obj (.text:NOROM_SetupGetTrimForAmpcompTh1)
                  000080b0    00000018                   : setup_rom.obj (.text:NOROM_SetupGetTrimForDblrLoopFilterResetVoltage)
                  000080c8    00000018                   : setup_rom.obj (.text:NOROM_SetupGetTrimForRcOscLfIBiasTrim)
                  000080e0    00000018                   : setup_rom.obj (.text:NOROM_SetupGetTrimForXoscLfRegulatorAndCmirrwrRatio)
                  000080f8    00000018     drivers_cc13x0.aem3 : PowerCC26XX.oem3 (.text:Power_idleFunc)
                  00008110    00000018                         : UARTCC26XX.oem3 (.text:UARTCC26XX_init)
                  00008128    00000018                         : UART.oem3 (.text:UART_Params_init)
                  00008140    00000018                         : PowerCC26XX.oem3 (.text:configureRFCoreClocks)
                  00008158    00000018     rtsv7M3_T_le_eabi.lib : args_main.obj (.text)
                  00008170    00000018                           : ll_mul_t2.obj (.text)
                  00008188    00000018     rf_multiMode_cc13x0.aem3 : RFCC26XX_multiMode.oem3 (.text:swiFxnFsm)
                  000081a0    00000018     release_pem3.oem3 (.text:ti_sysbios_BIOS_rtsUnlock__I)
                  000081b8    00000018     rom_sysbios.aem3 : rom_sysbios.obj (.text:ti_sysbios_knl_Swi_or__E)
                  000081d0    00000018     release_pem3.oem3 (.text:ti_sysbios_rom_cortexm_cc13xx_CC13xx_checkRevision__E)
                  000081e8    00000016     driverlib.lib : chipinfo.obj (.text:NOROM_ThisLibraryIsFor_CC13x0_HwRev20AndLater_HaltIfViolated)
                  000081fe    00000016     rf_multiMode_cc13x0.aem3 : RFCC26XX_multiMode.oem3 (.text:Q_pop)
                  00008214    00000016     release_pem3.oem3 (.text:ti_sysbios_BIOS_exitFunc__I)
                  0000822a    00000016     NodeRadioTask.obj (.text:ti_sysbios_knl_Event_Params_init)
                  00008240    00000016     NodeTask.obj (.text:ti_sysbios_knl_Event_Params_init)
                  00008256    00000016     EasyLink.obj (.text:ti_sysbios_knl_Semaphore_Params_init)
                  0000826c    00000016     NodeRadioTask.obj (.text:ti_sysbios_knl_Semaphore_Params_init)
                  00008282    00000016     NodeRadioTask.obj (.text:ti_sysbios_knl_Task_Params_init)
                  00008298    00000016     NodeTask.obj (.text:ti_sysbios_knl_Task_Params_init)
                  000082ae    00000002     smartrf_settings_predefined.obj (.text:enterLrmSysPatch)
                  000082b0    00000014     NodeRadioTask.obj (.text:AONBatMonBatteryVoltageGet)
                  000082c4    00000014     driverlib.lib : aon_rtc.obj (.text:NOROM_AONRTCCurrent64BitValueGet)
                  000082d8    00000014     rf_multiMode_cc13x0.aem3 : RFCC26XX_multiMode.oem3 (.text:RF_Params_init)
                  000082ec    00000014     rtsv7M3_T_le_eabi.lib : _lock.obj (.text)
                  00008300    00000014     release_pem3.oem3 (.text:ti_sysbios_knl_Clock_doTick__I)
                  00008314    00000014     rom_sysbios.aem3 : rom_sysbios.obj (.text:ti_sysbios_knl_Event_Instance_init__E)
                  00008328    00000012     drivers_cc13x0.aem3 : RingBuf.oem3 (.text:RingBuf_construct)
                  0000833a    00000012     release_pem3.oem3 (.text:xdc_runtime_Startup_exec__I)
                  0000834c    00000010     driverlib.lib : rfc.obj (.text:NOROM_RFCRfTrimSet)
                  0000835c    00000010                   : setup_rom.obj (.text:NOROM_SetupGetTrimForXoscHfFastStart)
                  0000836c    00000010                   : setup_rom.obj (.text:NOROM_SetupGetTrimForXoscHfIbiastherm)
                  0000837c    00000010     smartrf_settings.obj (.text:applyGenfskPatch)
                  0000838c    00000010     smartrf_settings_predefined.obj (.text:applyGenfskPatch)
                  0000839c    00000010     smartrf_settings_predefined.obj (.text:applyGenookPatch)
                  000083ac    00000010     smartrf_settings_predefined.obj (.text:applyLrmPatch)
                  000083bc    00000010     NodeTask.obj (.text:fastReportTimeoutCallback)
                  000083cc    00000010     rom_sysbios.aem3 : rom_sysbios.obj (.text:ti_sysbios_family_arm_m3_Hwi_post__E)
                  000083dc    00000010     drivers_cc13x0.aem3 : UARTCC26XX.oem3 (.text:uartPostNotify)
                  000083ec    0000000e     driverlib.lib : vims.obj (.text:NOROM_VIMSModeGet)
                  000083fa    0000000e     rtsv7M3_T_le_eabi.lib : copy_decompress_none.obj (.text:decompress:none)
                  00008408    0000000e     rom_sysbios.aem3 : rom_sysbios.obj (.text:ti_sysbios_family_arm_cc26xx_TimestampProvider_get32__E)
                  00008416    00000002                      : rom_sysbios.obj (.text:ti_sysbios_BIOS_linkedWithIncorrectBootLibrary__E)
                  00008418    0000000c     rf_multiMode_cc13x0.aem3 : RFCC26XX_multiMode.oem3 (.text:FsmNextState)
                  00008424    0000000c     drivers_cc13x0.aem3 : List.oem3 (.text:List_empty)
                  00008430    0000000c     driverlib.lib : cpu.obj (.text:NOROM_CPUcpsid)
                  0000843c    0000000c                   : cpu.obj (.text:NOROM_CPUcpsie)
                  00008448    0000000c                   : osc.obj (.text:NOROM_OSC_HPOSCRelativeFrequencyOffsetToRFCoreFormatConvert)
                  00008454    0000000c     drivers_cc13x0.aem3 : PINCC26XX.oem3 (.text:PIN_registerIntCb)
                  00008460    0000000c                         : PowerCC26XX.oem3 (.text:Power_getConstraintMask)
                  0000846c    0000000c                         : PowerCC26XX.oem3 (.text:Power_getDependencyCount)
                  00008478    0000000c     NodeRadioTask.obj (.text:TRNGDisable)
                  00008484    0000000c     NodeRadioTask.obj (.text:TRNGEnable)
                  00008490    0000000c     NodeRadioTask.obj (.text:TRNGStatusGet)
                  0000849c    0000000c     rtsv7M3_T_le_eabi.lib : copy_zero_init.obj (.text:decompress:ZI)
                  000084a8    0000000c     NodeTask.obj (.text:ti_sysbios_knl_Clock_handle)
                  000084b4    0000000c     release_pem3.oem3 (.text:ti_sysbios_knl_Event_Params__init__S)
                  000084c0    0000000c     NodeRadioTask.obj (.text:ti_sysbios_knl_Event_handle)
                  000084cc    0000000c     NodeTask.obj (.text:ti_sysbios_knl_Event_handle)
                  000084d8    0000000c     NodeRadioTask.obj (.text:ti_sysbios_knl_Semaphore_handle)
                  000084e4    0000000c     rom_sysbios.aem3 : rom_sysbios.obj (.text:ti_sysbios_knl_Swi_getTrigger__E)
                  000084f0    0000000c     release_pem3.oem3 (.text:xdc_runtime_Startup_reset__I)
                  000084fc    0000000c     rom_sysbios.aem3 : rom_sysbios.obj (.text:xdc_runtime_Startup_rtsDone__E)
                  00008508    0000000a     drivers_cc13x0.aem3 : UART.oem3 (.text:UART_read)
                  00008512    0000000a                         : UART.oem3 (.text:UART_write)
                  0000851c    00000008                         : UARTCC26XX.oem3 (.text:readSemCallback)
                  00008524    00000008     smartrf_settings.obj (.text:rf_patch_cpe_genfsk)
                  0000852c    00000008     smartrf_settings_predefined.obj (.text:rf_patch_cpe_genfsk)
                  00008534    00000008     smartrf_settings_predefined.obj (.text:rf_patch_cpe_genook)
                  0000853c    00000008     smartrf_settings_predefined.obj (.text:rf_patch_cpe_lrm)
                  00008544    00000008     drivers_cc13x0.aem3 : UARTCC26XX.oem3 (.text:writeSemCallback)
                  0000854c    00000006                         : UARTCC26XX.oem3 (.text:UARTCC26XX_readPolling)
                  00008552    00000006                         : UARTCC26XX.oem3 (.text:UARTCC26XX_writePolling)
                  00008558    00000006     rf_multiMode_cc13x0.aem3 : RFCC26XX_multiMode.oem3 (.text:clkReqAccessFxn)
                  0000855e    00000006     rom_sysbios.aem3 : rom_sysbios.obj (.text:ti_sysbios_family_arm_m3_Hwi_setFunc__E)
                  00008564    00000004     dpl_cc13x0.aem3 : PowerCC26XX_tirtos.oem3 (.text:CPUwfi)
                  00008568    00000004                     : HwiP_tirtos.oem3 (.text:HwiP_disable)
                  0000856c    00000004     drivers_cc13x0.aem3 : List.oem3 (.text:List_head)
                  00008570    00000004                         : List.oem3 (.text:List_next)
                  00008574    00000004     rf_multiMode_cc13x0.aem3 : RFCC26XX_multiMode.oem3 (.text:Q_peek)
                  00008578    00000004     drivers_cc13x0.aem3 : PowerCC26XX.oem3 (.text:nopResourceHandler)
                  0000857c    00000004     rom_sysbios.aem3 : rom_sysbios.obj (.text:ti_sysbios_family_arm_cc26xx_Timer_getCount64__E)
                  00008580    00000004                      : rom_sysbios.obj (.text:ti_sysbios_knl_Clock_isActive__E)
                  00008584    00000002     release_pem3.oem3 (.text:ti_sysbios_BIOS_nullFunc__I)
                  00008586    00000002     rom_sysbios.aem3 : rom_sysbios.obj (.text:ti_sysbios_knl_Clock_triggerFunc__I)
                  00008588    00000002     release_pem3.oem3 (.text:ti_sysbios_rom_cortexm_cc13xx_CC13xx_badRomRevision__E)
                  0000858a    00000002     rom_sysbios.aem3 : rom_sysbios.obj (.text:xdc_runtime_SysCallback_defaultAbort)
                  0000858c    00000002                      : rom_sysbios.obj (.text:xdc_runtime_SysCallback_defaultExit)
                  0000858e    00000002     --HOLE-- [fill = 0]
                  00008590    00000008     (.tramp.xdc_runtime_Core_assignParams__I.1)
                  00008598    00000008     (.tramp.xdc_runtime_Startup_startMods__I.1)
                  000085a0    00000008     (.tramp.ti_sysbios_knl_Queue_construct.1)
                  000085a8    00000008     (.tramp.ti_sysbios_knl_Clock_logTick__E.1)
                  000085b0    00000008     (.tramp.ti_sysbios_knl_Task_Params__init__S.1)
                  000085b8    00000008     (.tramp.ti_sysbios_BIOS_RtsGateProxy_leave__E.1)
                  000085c0    00000008     (.tramp.ti_sysbios_BIOS_start__E.1)
                  000085c8    00000008     (.tramp.ti_sysbios_BIOS_RtsGateProxy_enter__E.1)
                  000085d0    00000008     (.tramp.xdc_runtime_Core_constructObject__I.1)
                  000085d8    00000008     (.tramp.ti_sysbios_knl_Task_startup__E.1)
                  000085e0    00000008     (.tramp.ti_sysbios_knl_Swi_startup__E.1)
                  000085e8    00000008     (.tramp.ti_sysbios_hal_Hwi_startup__E.1)
                  000085f0    00000008     (.tramp.ti_sysbios_family_arm_cc26xx_Timer_startup__E.1)
                  000085f8    00000008     (.tramp.xdc_runtime_System_atexit__E.1)
                  00008600    00000008     (.tramp.ti_sysbios_BIOS_setThreadType__E.1)
                  00008608    00000008     (.tramp.xdc_runtime_System_exit__E.1)
                  00008610    00000008     (.tramp.ti_sysbios_heaps_HeapMem_restore__E.1)
                  00008618    00000008     (.tramp.ti_sysbios_heaps_HeapMem_Object__get__S.1)
                  00008620    00000008     (.tramp.ti_sysbios_knl_Task_unblockI__E.1)
                  00008628    00000008     (.tramp.ti_sysbios_knl_Queue_remove__E.1)
                  00008630    00000008     (.tramp.ti_sysbios_knl_Queue_head__E.1)
                  00008638    00000008     (.tramp.ti_sysbios_knl_Queue_empty__E.1)
                  00008640    00000008     (.tramp.ti_sysbios_knl_Clock_scheduleNextTick__E.1)
                  00008648    00000008     (.tramp.ti_sysbios_knl_Clock_walkQueueDynamic__E.1)
                  00008650    00000008     (.tramp.ti_sysbios_knl_Clock_TimerProxy_getCurrentTick__E.1)
                  00008658    00000008     (.tramp.ti_sysbios_knl_Task_construct.1)
                  00008660    00000008     (.tramp.ti_sysbios_family_arm_m3_Hwi_enableInterrupt__E.1)
                  00008668    00000008     (.tramp.ti_sysbios_BIOS_getCpuFreq__E.1)
                  00008670    00000008     (.tramp.ti_sysbios_knl_Clock_removeI__E.1)
                  00008678    00000008     (.tramp.ti_sysbios_knl_Clock_startI__E.1)
                  00008680    00000008     (.tramp.ti_sysbios_knl_Task_blockI__E.1)
                  00008688    00000008     (.tramp.ti_sysbios_knl_Queue_enqueue__E.1)
                  00008690    00000008     (.tramp.ti_sysbios_knl_Task_self__E.1)
                  00008698    00000008     (.tramp.ti_sysbios_knl_Clock_addI__E.1)
                  000086a0    00000008     (.tramp.ti_sysbios_family_arm_m3_Hwi_destruct.1)
                  000086a8    00000008     (.tramp.ti_sysbios_knl_Swi_destruct.1)
                  000086b0    00000008     (.tramp.ti_sysbios_knl_Clock_destruct.1)
                  000086b8    00000008     (.tramp.ti_sysbios_knl_Semaphore_destruct.1)
                  000086c0    00000008     (.tramp.ti_sysbios_knl_Swi_post__E.1)
                  000086c8    00000008     (.tramp.ti_sysbios_knl_Clock_setTimeout__E.1)
                  000086d0    00000008     (.tramp.ti_sysbios_knl_Task_sleep__E.1)
                  000086d8    00000008     (.tramp.ti_sysbios_knl_Clock_construct.1)
                  000086e0    00000008     (.tramp.ti_sysbios_knl_Clock_Params__init__S.1)
                  000086e8    00000008     (.tramp.ti_sysbios_knl_Clock_start__E.1)
                  000086f0    00000008     (.tramp.xdc_runtime_System_abortSpin__E.1)
                  000086f8    00000008     (.tramp.ti_sysbios_knl_Swi_construct.1)
                  00008700    00000008     (.tramp.ti_sysbios_knl_Swi_Params__init__S.1)
                  00008708    00000008     (.tramp.ti_sysbios_family_arm_m3_Hwi_construct.1)
                  00008710    00000008     (.tramp.ti_sysbios_family_arm_m3_Hwi_Params__init__S.1)
                  00008718    00000008     (.tramp.ti_sysbios_knl_Semaphore_construct.1)
                  00008720    00000008     (.tramp.ti_sysbios_knl_Semaphore_Params__init__S.1)
                  00008728    00000008     (.tramp.ti_sysbios_knl_Clock_getTicks__E.1)
                  00008730    00000008     (.tramp.xdc_runtime_System_abort__E.1)
                  00008738    00000008     (.tramp.ti_sysbios_knl_Swi_restore__E.1)
                  00008740    00000008     (.tramp.ti_sysbios_knl_Swi_disable__E.1)
                  00008748    00000008     (.tramp.ti_sysbios_knl_Task_restore__E.1)
                  00008750    00000008     (.tramp.ti_sysbios_knl_Task_disable__E.1)
                  00008758    00000008     (.tramp.ti_sysbios_knl_Semaphore_create.1)
                  00008760    00000008     (.tramp.xdc_runtime_Error_init__E.1)
                  00008768    00000008     (.tramp.ti_sysbios_knl_Semaphore_post__E.1)
                  00008770    00000008     (.tramp.ti_sysbios_knl_Semaphore_pend__E.1)
                  00008778    00000008     (.tramp.ti_sysbios_family_arm_m3_Hwi_restoreFxn__E.1)
                  00008780    00000008     (.tramp.ti_sysbios_family_arm_m3_Hwi_disableFxn__E.1)

.const     0    00008788    000037e8     
                  00008788    0000073c     smartrf_settings_predefined.obj (.const:patchGenookMce)
                  00008ec4    000006b4     smartrf_settings.obj (.const:patchGenfskRfe)
                  00009578    000006b4     smartrf_settings_predefined.obj (.const:patchGenfskRfe)
                  00009c2c    000006b4     smartrf_settings_predefined.obj (.const:patchLrmRfe)
                  0000a2e0    000006a4     smartrf_settings_predefined.obj (.const:patchGenookRfe)
                  0000a984    00000504     smartrf_settings_predefined.obj (.const:patchHsp4mbpsRfe)
                  0000ae88    000003f0     smartrf_settings_predefined.obj (.const:patchHsp4mbpsMce)
                  0000b278    0000028c     smartrf_settings.obj (.const:patchImageGenfsk)
                  0000b504    0000028c     smartrf_settings_predefined.obj (.const:patchImageGenfsk)
                  0000b790    0000028c     smartrf_settings_predefined.obj (.const:patchImageGenook)
                  0000ba1c    0000028c     smartrf_settings_predefined.obj (.const:patchImageLrm)
                  0000bca8    0000004c     drivers_cc13x0.aem3 : PowerCC26XX.oem3 (.const:resourceDB)
                  0000bcf4    00000048     release_pem3.oem3 (.const:.string)
                  0000bd3c    00000040     drivers_cc13x0.aem3 : UARTCC26XX.oem3 (.const:$O1$$)
                  0000bd7c    00000040                         : GPIOCC26XX.oem3 (.const:$O2$$)
                  0000bdbc    0000002c     CC1310_LAUNCHXL.obj (.const:BoardGpioInitTable)
                  0000bde8    00000028     drivers_cc13x0.aem3 : UARTCC26XX.oem3 (.const:UARTCC26XX_fxnTable)
                  0000be10    00000024                         : UART.oem3 (.const:UART_defaultParams)
                  0000be34    00000024     release_pem3.oem3 (.const:xdc_runtime_Startup_sfxnTab__A)
                  0000be58    00000020     release_pem3.oem3 (.const:ti_sysbios_knl_Event_Object__DESC__C)
                  0000be78    00000020     CC1310_LAUNCHXL.obj (.const:uartCC26XXHWAttrs)
                  0000be98    00000018     driverlib.lib : rfc.obj (.const:rfc_defaultIrqAddr)
                  0000beb0    00000018     release_pem3.oem3 (.const:ti_sysbios_knl_Event_Object__PARAMS__C)
                  0000bec8    00000016     NodeTask.obj (.const:.string:$P$T0$1)
                  0000bede    00000001     release_pem3.oem3 (.const:xdc_runtime_Text_charTab__A)
                  0000bedf    00000001     --HOLE-- [fill = 0]
                  0000bee0    00000014     CC1310_LAUNCHXL.obj (.const:GPIOCC26XX_config)
                  0000bef4    00000014     rf_multiMode_cc13x0.aem3 : RFCC26XX_multiMode.oem3 (.const:RF_defaultParams)
                  0000bf08    00000012     release_pem3.oem3 (.const:xdc_runtime_Startup_sfxnRts__A)
                  0000bf1a    00000002     --HOLE-- [fill = 0]
                  0000bf1c    00000010     CC1310_LAUNCHXL.obj (.const:PowerCC26XX_config)
                  0000bf2c    0000000c     CC1310_LAUNCHXL.obj (.const:UART_config)
                  0000bf38    0000000c     release_pem3.oem3 (.const:xdc_runtime_Startup_firstFxns__A)
                  0000bf44    00000008     CC1310_LAUNCHXL.obj (.const)
                  0000bf4c    00000008     CC1310_LAUNCHXL.obj (.const:PINCC26XX_hwAttrs)
                  0000bf54    00000004     CC1310_LAUNCHXL.obj (.const:RFCC26XX_hwAttrs)
                  0000bf58    00000004     release_pem3.oem3 (.const:ti_sysbios_heaps_HeapMem_primaryHeapBaseAddr__C)
                  0000bf5c    00000004     release_pem3.oem3 (.const:ti_sysbios_heaps_HeapMem_primaryHeapEndAddr__C)
                  0000bf60    00000004     release_pem3.oem3 (.const:ti_sysbios_knl_Clock_tickPeriod__C)
                  0000bf64    00000004     release_pem3.oem3 (.const:ti_sysbios_knl_Clock_triggerClock__C)
                  0000bf68    00000004     release_pem3.oem3 (.const:ti_sysbios_knl_Event_Instance_State_pendQ__O)
                  0000bf6c    00000004     release_pem3.oem3 (.const:ti_sysbios_knl_Idle_funcList__A)

.cinit     0    00000040    00000410     
                  00000040    000002d5     (.cinit..data.load) [load image, compression = lzss]
                  00000315    00000028     (.cinit..data:ti_sysbios_family_arm_m3_Hwi_Module__state__V.load) [load image, compression = lzss]
                  0000033d    00000021     (.cinit..data:ti_sysbios_knl_Task_Module__state__V.load) [load image, compression = lzss]
                  0000035e    0000001f     (.cinit..data:ti_sysbios_BIOS_Module__state__V.load) [load image, compression = lzss]
                  0000037d    0000001e     (.cinit..data:ti_sysbios_knl_Clock_Module__state__V.load) [load image, compression = lzss]
                  0000039b    00000010     (.cinit..data:ti_sysbios_knl_Swi_Module__state__V.load) [load image, compression = lzss]
                  000003ab    00000001     --HOLE-- [fill = 0]
                  000003ac    0000000c     (__TI_handler_table)
                  000003b8    0000000b     (.cinit..data:ti_sysbios_family_arm_cc26xx_Timer_Module__state__V.load) [load image, compression = lzss]
                  000003c3    0000000b     (.cinit..data:xdc_runtime_System_Module__state__V.load) [load image, compression = lzss]
                  000003ce    00000002     --HOLE-- [fill = 0]
                  000003d0    00000008     (.cinit..bss.load) [load image, compression = zero_init]
                  000003d8    00000008     (.cinit..data:xdc_runtime_Memory_Module__state__V.load) [load image, compression = lzss]
                  000003e0    00000007     (.cinit..data:ti_sysbios_family_arm_cc26xx_TimestampProvider_Module__state__V.load) [load image, compression = lzss]
                  000003e7    00000007     (.cinit..data:xdc_runtime_Startup_Module__state__V.load) [load image, compression = lzss]
                  000003ee    00000002     --HOLE-- [fill = 0]
                  000003f0    00000060     (__TI_cinit_table)

.init_array 
*          0    00000000    00000000     UNINITIALIZED

.ccfg      0    0001ffa8    00000058     
                  0001ffa8    00000058     ccfg.obj (.ccfg:retain)

.const:ti_sysbios_knl_Task_Object__PARAMS__C 
*          0    00001000    0000003c     
                  00001000    0000003c     release_pem3.oem3 (.const:ti_sysbios_knl_Task_Object__PARAMS__C)

.const:ti_sysbios_knl_Mailbox_Object__PARAMS__C 
*          0    0000103c    00000034     
                  0000103c    00000034     release_pem3.oem3 (.const:ti_sysbios_knl_Mailbox_Object__PARAMS__C)

.const:ti_sysbios_family_arm_m3_Hwi_Object__PARAMS__C 
*          0    00001070    00000030     
                  00001070    00000030     release_pem3.oem3 (.const:ti_sysbios_family_arm_m3_Hwi_Object__PARAMS__C)

.const:ti_sysbios_hal_Hwi_Object__PARAMS__C 
*          0    000010a0    0000002c     
                  000010a0    0000002c     release_pem3.oem3 (.const:ti_sysbios_hal_Hwi_Object__PARAMS__C)

.const:ti_sysbios_heaps_HeapMem_Module__FXNS__C 
*          0    000010cc    00000028     
                  000010cc    00000028     release_pem3.oem3 (.const:ti_sysbios_heaps_HeapMem_Module__FXNS__C)

.const:ti_sysbios_knl_Swi_Object__PARAMS__C 
*          0    000010f4    00000028     
                  000010f4    00000028     release_pem3.oem3 (.const:ti_sysbios_knl_Swi_Object__PARAMS__C)

.const:ti_sysbios_gates_GateHwi_Module__FXNS__C 
*          0    0000111c    00000024     
                  0000111c    00000024     release_pem3.oem3 (.const:ti_sysbios_gates_GateHwi_Module__FXNS__C)

.const:ti_sysbios_gates_GateMutex_Module__FXNS__C 
*          0    00001140    00000024     
                  00001140    00000024     release_pem3.oem3 (.const:ti_sysbios_gates_GateMutex_Module__FXNS__C)

.const:ti_sysbios_heaps_HeapMem_Object__PARAMS__C 
*          0    00001164    00000024     
                  00001164    00000024     release_pem3.oem3 (.const:ti_sysbios_heaps_HeapMem_Object__PARAMS__C)

.const:ti_sysbios_knl_Clock_Object__PARAMS__C 
*          0    00001188    00000024     
                  00001188    00000024     release_pem3.oem3 (.const:ti_sysbios_knl_Clock_Object__PARAMS__C)

.const:ti_sysbios_knl_Semaphore_Object__PARAMS__C 
*          0    000011ac    00000024     
                  000011ac    00000024     release_pem3.oem3 (.const:ti_sysbios_knl_Semaphore_Object__PARAMS__C)

.const:ti_sysbios_family_arm_m3_Hwi_Object__DESC__C 
*          0    000011d0    00000020     
                  000011d0    00000020     release_pem3.oem3 (.const:ti_sysbios_family_arm_m3_Hwi_Object__DESC__C)

.const:ti_sysbios_gates_GateHwi_Object__DESC__C 
*          0    000011f0    00000020     
                  000011f0    00000020     release_pem3.oem3 (.const:ti_sysbios_gates_GateHwi_Object__DESC__C)

.const:ti_sysbios_gates_GateMutex_Object__DESC__C 
*          0    00001210    00000020     
                  00001210    00000020     release_pem3.oem3 (.const:ti_sysbios_gates_GateMutex_Object__DESC__C)

.const:ti_sysbios_hal_Hwi_Object__DESC__C 
*          0    00001230    00000020     
                  00001230    00000020     release_pem3.oem3 (.const:ti_sysbios_hal_Hwi_Object__DESC__C)

.const:ti_sysbios_heaps_HeapMem_Object__DESC__C 
*          0    00001250    00000020     
                  00001250    00000020     release_pem3.oem3 (.const:ti_sysbios_heaps_HeapMem_Object__DESC__C)

.const:ti_sysbios_knl_Clock_Object__DESC__C 
*          0    00001270    00000020     
                  00001270    00000020     release_pem3.oem3 (.const:ti_sysbios_knl_Clock_Object__DESC__C)

.const:ti_sysbios_knl_Mailbox_Object__DESC__C 
*          0    00001290    00000020     
                  00001290    00000020     release_pem3.oem3 (.const:ti_sysbios_knl_Mailbox_Object__DESC__C)

.const:ti_sysbios_knl_Queue_Object__DESC__C 
*          0    000012b0    00000020     
                  000012b0    00000020     release_pem3.oem3 (.const:ti_sysbios_knl_Queue_Object__DESC__C)

.const:ti_sysbios_knl_Semaphore_Object__DESC__C 
*          0    000012d0    00000020     
                  000012d0    00000020     release_pem3.oem3 (.const:ti_sysbios_knl_Semaphore_Object__DESC__C)

.const:ti_sysbios_knl_Swi_Object__DESC__C 
*          0    000012f0    00000020     
                  000012f0    00000020     release_pem3.oem3 (.const:ti_sysbios_knl_Swi_Object__DESC__C)

.const:ti_sysbios_knl_Task_Object__DESC__C 
*          0    00001310    00000020     
                  00001310    00000020     release_pem3.oem3 (.const:ti_sysbios_knl_Task_Object__DESC__C)

.const:ti_sysbios_gates_GateHwi_Object__PARAMS__C 
*          0    00001330    00000018     
                  00001330    00000018     release_pem3.oem3 (.const:ti_sysbios_gates_GateHwi_Object__PARAMS__C)

.const:ti_sysbios_gates_GateMutex_Object__PARAMS__C 
*          0    00001348    00000018     
                  00001348    00000018     release_pem3.oem3 (.const:ti_sysbios_gates_GateMutex_Object__PARAMS__C)

.const:ti_sysbios_knl_Queue_Object__PARAMS__C 
*          0    00001360    00000018     
                  00001360    00000018     release_pem3.oem3 (.const:ti_sysbios_knl_Queue_Object__PARAMS__C)

.const:ti_sysbios_knl_Idle_funcList__C 
*          0    00001378    00000008     
                  00001378    00000008     release_pem3.oem3 (.const:ti_sysbios_knl_Idle_funcList__C)

.const:ti_sysbios_family_arm_cc26xx_Timer_startupNeeded__C 
*          0    00001384    00000004     
                  00001384    00000004     release_pem3.oem3 (.const:ti_sysbios_family_arm_cc26xx_Timer_startupNeeded__C)

.const:ti_sysbios_family_arm_m3_Hwi_E_alreadyDefined__C 
*          0    00001388    00000004     
                  00001388    00000004     release_pem3.oem3 (.const:ti_sysbios_family_arm_m3_Hwi_E_alreadyDefined__C)

.const:ti_sysbios_family_arm_m3_Hwi_E_hwiLimitExceeded__C 
*          0    0000138c    00000004     
                  0000138c    00000004     release_pem3.oem3 (.const:ti_sysbios_family_arm_m3_Hwi_E_hwiLimitExceeded__C)

.const:ti_sysbios_family_arm_m3_Hwi_NUM_INTERRUPTS__C 
*          0    00001390    00000004     
                  00001390    00000004     release_pem3.oem3 (.const:ti_sysbios_family_arm_m3_Hwi_NUM_INTERRUPTS__C)

.const:ti_sysbios_family_arm_m3_Hwi_Object__count__C 
*          0    00001394    00000004     
                  00001394    00000004     release_pem3.oem3 (.const:ti_sysbios_family_arm_m3_Hwi_Object__count__C)

.const:ti_sysbios_family_arm_m3_Hwi_Object__table__C 
*          0    00001398    00000004     
                  00001398    00000004     release_pem3.oem3 (.const:ti_sysbios_family_arm_m3_Hwi_Object__table__C)

.const:ti_sysbios_family_arm_m3_Hwi_ccr__C 
*          0    0000139c    00000004     
                  0000139c    00000004     release_pem3.oem3 (.const:ti_sysbios_family_arm_m3_Hwi_ccr__C)

.const:ti_sysbios_family_arm_m3_Hwi_excHandlerFunc__C 
*          0    000013a0    00000004     
                  000013a0    00000004     release_pem3.oem3 (.const:ti_sysbios_family_arm_m3_Hwi_excHandlerFunc__C)

.const:ti_sysbios_family_arm_m3_Hwi_nullIsrFunc__C 
*          0    000013a4    00000004     
                  000013a4    00000004     release_pem3.oem3 (.const:ti_sysbios_family_arm_m3_Hwi_nullIsrFunc__C)

.const:ti_sysbios_family_arm_m3_Hwi_numSparseInterrupts__C 
*          0    000013a8    00000004     
                  000013a8    00000004     release_pem3.oem3 (.const:ti_sysbios_family_arm_m3_Hwi_numSparseInterrupts__C)

.const:ti_sysbios_family_arm_m3_Hwi_priGroup__C 
*          0    000013ac    00000004     
                  000013ac    00000004     release_pem3.oem3 (.const:ti_sysbios_family_arm_m3_Hwi_priGroup__C)

.const:ti_sysbios_family_arm_m3_TaskSupport_stackAlignment__C 
*          0    000013b0    00000004     
                  000013b0    00000004     release_pem3.oem3 (.const:ti_sysbios_family_arm_m3_TaskSupport_stackAlignment__C)

.const:ti_sysbios_heaps_HeapMem_E_memory__C 
*          0    000013b4    00000004     
                  000013b4    00000004     release_pem3.oem3 (.const:ti_sysbios_heaps_HeapMem_E_memory__C)

.const:ti_sysbios_heaps_HeapMem_Module__gateObj__C 
*          0    000013b8    00000004     
                  000013b8    00000004     release_pem3.oem3 (.const:ti_sysbios_heaps_HeapMem_Module__gateObj__C)

.const:ti_sysbios_heaps_HeapMem_Object__count__C 
*          0    000013bc    00000004     
                  000013bc    00000004     release_pem3.oem3 (.const:ti_sysbios_heaps_HeapMem_Object__count__C)

.const:ti_sysbios_heaps_HeapMem_Object__table__C 
*          0    000013c0    00000004     
                  000013c0    00000004     release_pem3.oem3 (.const:ti_sysbios_heaps_HeapMem_Object__table__C)

.const:ti_sysbios_heaps_HeapMem_reqAlign__C 
*          0    000013c4    00000004     
                  000013c4    00000004     release_pem3.oem3 (.const:ti_sysbios_heaps_HeapMem_reqAlign__C)

.const:ti_sysbios_knl_Clock_serviceMargin__C 
*          0    000013c8    00000004     
                  000013c8    00000004     release_pem3.oem3 (.const:ti_sysbios_knl_Clock_serviceMargin__C)

.const:ti_sysbios_knl_Mailbox_Object__count__C 
*          0    000013cc    00000004     
                  000013cc    00000004     release_pem3.oem3 (.const:ti_sysbios_knl_Mailbox_Object__count__C)

.const:ti_sysbios_knl_Mailbox_Object__table__C 
*          0    000013d0    00000004     
                  000013d0    00000004     release_pem3.oem3 (.const:ti_sysbios_knl_Mailbox_Object__table__C)

.const:ti_sysbios_knl_Mailbox_maxTypeAlign__C 
*          0    000013d4    00000004     
                  000013d4    00000004     release_pem3.oem3 (.const:ti_sysbios_knl_Mailbox_maxTypeAlign__C)

.const:ti_sysbios_knl_Queue_Object__count__C 
*          0    000013d8    00000004     
                  000013d8    00000004     release_pem3.oem3 (.const:ti_sysbios_knl_Queue_Object__count__C)

.const:ti_sysbios_knl_Queue_Object__table__C 
*          0    000013dc    00000004     
                  000013dc    00000004     release_pem3.oem3 (.const:ti_sysbios_knl_Queue_Object__table__C)

.const:ti_sysbios_knl_Swi_Object__count__C 
*          0    000013e0    00000004     
                  000013e0    00000004     release_pem3.oem3 (.const:ti_sysbios_knl_Swi_Object__count__C)

.const:ti_sysbios_knl_Swi_Object__table__C 
*          0    000013e4    00000004     
                  000013e4    00000004     release_pem3.oem3 (.const:ti_sysbios_knl_Swi_Object__table__C)

.const:ti_sysbios_knl_Swi_numPriorities__C 
*          0    000013e8    00000004     
                  000013e8    00000004     release_pem3.oem3 (.const:ti_sysbios_knl_Swi_numPriorities__C)

.const:ti_sysbios_knl_Task_Object__count__C 
*          0    000013ec    00000004     
                  000013ec    00000004     release_pem3.oem3 (.const:ti_sysbios_knl_Task_Object__count__C)

.const:ti_sysbios_knl_Task_Object__table__C 
*          0    000013f0    00000004     
                  000013f0    00000004     release_pem3.oem3 (.const:ti_sysbios_knl_Task_Object__table__C)

.const:ti_sysbios_knl_Task_allBlockedFunc__C 
*          0    000013f4    00000004     
                  000013f4    00000004     release_pem3.oem3 (.const:ti_sysbios_knl_Task_allBlockedFunc__C)

.const:ti_sysbios_knl_Task_defaultStackHeap__C 
*          0    000013f8    00000004     
                  000013f8    00000004     release_pem3.oem3 (.const:ti_sysbios_knl_Task_defaultStackHeap__C)

.const:ti_sysbios_knl_Task_defaultStackSize__C 
*          0    000013fc    00000004     
                  000013fc    00000004     release_pem3.oem3 (.const:ti_sysbios_knl_Task_defaultStackSize__C)

.const:ti_sysbios_knl_Task_numConstructedTasks__C 
*          0    00001400    00000004     
                  00001400    00000004     release_pem3.oem3 (.const:ti_sysbios_knl_Task_numConstructedTasks__C)

.const:ti_sysbios_family_arm_cc26xx_Timer_Module__id__C 
*          0    00001406    00000002     
                  00001406    00000002     release_pem3.oem3 (.const:ti_sysbios_family_arm_cc26xx_Timer_Module__id__C)

.const:ti_sysbios_family_arm_cc26xx_TimestampProvider_useClockTimer__C 
*          0    00001408    00000002     
                  00001408    00000002     release_pem3.oem3 (.const:ti_sysbios_family_arm_cc26xx_TimestampProvider_useClockTimer__C)

.const:ti_sysbios_family_arm_m3_Hwi_Module__id__C 
*          0    0000140a    00000002     
                  0000140a    00000002     release_pem3.oem3 (.const:ti_sysbios_family_arm_m3_Hwi_Module__id__C)

.const:ti_sysbios_gates_GateHwi_Module__id__C 
*          0    0000140c    00000002     
                  0000140c    00000002     release_pem3.oem3 (.const:ti_sysbios_gates_GateHwi_Module__id__C)

.const:ti_sysbios_gates_GateMutex_Module__id__C 
*          0    0000140e    00000002     
                  0000140e    00000002     release_pem3.oem3 (.const:ti_sysbios_gates_GateMutex_Module__id__C)

.const:ti_sysbios_heaps_HeapMem_Module__id__C 
*          0    00001410    00000002     
                  00001410    00000002     release_pem3.oem3 (.const:ti_sysbios_heaps_HeapMem_Module__id__C)

.const:ti_sysbios_knl_Task_initStackFlag__C 
*          0    00001412    00000002     
                  00001412    00000002     release_pem3.oem3 (.const:ti_sysbios_knl_Task_initStackFlag__C)

.const:ti_sysbios_knl_Clock_tickMode__C 
*          0    00001414    00000001     
                  00001414    00000001     release_pem3.oem3 (.const:ti_sysbios_knl_Clock_tickMode__C)

.const:xdc_runtime_Startup_firstFxns__C 
*          0    00001418    00000008     
                  00001418    00000008     release_pem3.oem3 (.const:xdc_runtime_Startup_firstFxns__C)

.const:xdc_runtime_Startup_lastFxns__C 
*          0    00001420    00000008     
                  00001420    00000008     release_pem3.oem3 (.const:xdc_runtime_Startup_lastFxns__C)

.const:xdc_runtime_Assert_E_assertFailed__C 
*          0    00001428    00000004     
                  00001428    00000004     release_pem3.oem3 (.const:xdc_runtime_Assert_E_assertFailed__C)

.const:xdc_runtime_Error_E_memory__C 
*          0    0000142c    00000004     
                  0000142c    00000004     release_pem3.oem3 (.const:xdc_runtime_Error_E_memory__C)

.const:xdc_runtime_Error_policyFxn__C 
*          0    00001430    00000004     
                  00001430    00000004     release_pem3.oem3 (.const:xdc_runtime_Error_policyFxn__C)

.const:xdc_runtime_IGateProvider_Interface__BASE__C 
*          0    00001434    00000004     
                  00001434    00000004     release_pem3.oem3 (.const:xdc_runtime_IGateProvider_Interface__BASE__C)

.const:xdc_runtime_IHeap_Interface__BASE__C 
*          0    00001438    00000004     
                  00001438    00000004     release_pem3.oem3 (.const:xdc_runtime_IHeap_Interface__BASE__C)

.const:xdc_runtime_IModule_Interface__BASE__C 
*          0    0000143c    00000004     
                  0000143c    00000004     release_pem3.oem3 (.const:xdc_runtime_IModule_Interface__BASE__C)

.const:xdc_runtime_Main_Module__diagsEnabled__C 
*          0    00001440    00000004     
                  00001440    00000004     release_pem3.oem3 (.const:xdc_runtime_Main_Module__diagsEnabled__C)

.const:xdc_runtime_Main_Module__diagsIncluded__C 
*          0    00001444    00000004     
                  00001444    00000004     release_pem3.oem3 (.const:xdc_runtime_Main_Module__diagsIncluded__C)

.const:xdc_runtime_Main_Module__diagsMask__C 
*          0    00001448    00000004     
                  00001448    00000004     release_pem3.oem3 (.const:xdc_runtime_Main_Module__diagsMask__C)

.const:xdc_runtime_Memory_defaultHeapInstance__C 
*          0    0000144c    00000004     
                  0000144c    00000004     release_pem3.oem3 (.const:xdc_runtime_Memory_defaultHeapInstance__C)

.const:xdc_runtime_Startup_execImpl__C 
*          0    00001450    00000004     
                  00001450    00000004     release_pem3.oem3 (.const:xdc_runtime_Startup_execImpl__C)

.const:xdc_runtime_Startup_maxPasses__C 
*          0    00001454    00000004     
                  00001454    00000004     release_pem3.oem3 (.const:xdc_runtime_Startup_maxPasses__C)

.const:xdc_runtime_Startup_sfxnRts__C 
*          0    00001458    00000004     
                  00001458    00000004     release_pem3.oem3 (.const:xdc_runtime_Startup_sfxnRts__C)

.const:xdc_runtime_Startup_sfxnTab__C 
*          0    0000145c    00000004     
                  0000145c    00000004     release_pem3.oem3 (.const:xdc_runtime_Startup_sfxnTab__C)

.const:xdc_runtime_Startup_startModsFxn__C 
*          0    00001460    00000004     
                  00001460    00000004     release_pem3.oem3 (.const:xdc_runtime_Startup_startModsFxn__C)

.const:xdc_runtime_SysCallback_abortFxn__C 
*          0    00001464    00000004     
                  00001464    00000004     release_pem3.oem3 (.const:xdc_runtime_SysCallback_abortFxn__C)

.const:xdc_runtime_SysCallback_exitFxn__C 
*          0    00001468    00000004     
                  00001468    00000004     release_pem3.oem3 (.const:xdc_runtime_SysCallback_exitFxn__C)

.const:xdc_runtime_System_abortFxn__C 
*          0    0000146c    00000004     
                  0000146c    00000004     release_pem3.oem3 (.const:xdc_runtime_System_abortFxn__C)

.const:xdc_runtime_System_exitFxn__C 
*          0    00001470    00000004     
                  00001470    00000004     release_pem3.oem3 (.const:xdc_runtime_System_exitFxn__C)

.const:xdc_runtime_System_maxAtexitHandlers__C 
*          0    00001474    00000004     
                  00001474    00000004     release_pem3.oem3 (.const:xdc_runtime_System_maxAtexitHandlers__C)

.const:xdc_runtime_Text_charTab__C 
*          0    00001478    00000004     
                  00001478    00000004     release_pem3.oem3 (.const:xdc_runtime_Text_charTab__C)

.const:xdc_runtime_Text_nameEmpty__C 
*          0    0000147c    00000004     
                  0000147c    00000004     release_pem3.oem3 (.const:xdc_runtime_Text_nameEmpty__C)

.const:xdc_runtime_Text_nameStatic__C 
*          0    00001480    00000004     
                  00001480    00000004     release_pem3.oem3 (.const:xdc_runtime_Text_nameStatic__C)

.const:xdc_runtime_Text_nameUnknown__C 
*          0    00001484    00000004     
                  00001484    00000004     release_pem3.oem3 (.const:xdc_runtime_Text_nameUnknown__C)

.const:xdc_runtime_Main_Module__id__C 
*          0    00001488    00000002     
                  00001488    00000002     release_pem3.oem3 (.const:xdc_runtime_Main_Module__id__C)

.const:xdc_runtime_Memory_Module__id__C 
*          0    0000148a    00000002     
                  0000148a    00000002     release_pem3.oem3 (.const:xdc_runtime_Memory_Module__id__C)

.const:xdc_runtime_Text_charCnt__C 
*          0    0000148c    00000002     
                  0000148c    00000002     release_pem3.oem3 (.const:xdc_runtime_Text_charCnt__C)

.const:xdc_runtime_Text_isLoaded__C 
*          0    0000148e    00000002     
                  0000148e    00000002     release_pem3.oem3 (.const:xdc_runtime_Text_isLoaded__C)

.const:xdc_runtime_Error_policy__C 
*          0    00001490    00000001     
                  00001490    00000001     release_pem3.oem3 (.const:xdc_runtime_Error_policy__C)

.const:ti_sysbios_rom_ROM_AONRTCChannelEnable 
*          0    00001494    00000004     
                  00001494    00000004     release_pem3.oem3 (.const:ti_sysbios_rom_ROM_AONRTCChannelEnable)

.const:ti_sysbios_rom_ROM_AONRTCCompareValueSet 
*          0    00001498    00000004     
                  00001498    00000004     release_pem3.oem3 (.const:ti_sysbios_rom_ROM_AONRTCCompareValueSet)

.const:ti_sysbios_rom_ROM_AONRTCCurrentCompareValueGet 
*          0    0000149c    00000004     
                  0000149c    00000004     release_pem3.oem3 (.const:ti_sysbios_rom_ROM_AONRTCCurrentCompareValueGet)

.const:ti_sysbios_rom_ROM_AONRTCEventClear 
*          0    000014a0    00000004     
                  000014a0    00000004     release_pem3.oem3 (.const:ti_sysbios_rom_ROM_AONRTCEventClear)

.const:ti_sysbios_rom_ROM_ti_sysbios_family_arm_cc26xx_Timer_getCount64__E 
*          0    000014a4    00000004     
                  000014a4    00000004     release_pem3.oem3 (.const:ti_sysbios_rom_ROM_ti_sysbios_family_arm_cc26xx_Timer_getCount64__E)

.const:ti_sysbios_rom_ROM_ti_sysbios_family_arm_cc26xx_Timer_getCurrentTick__E 
*          0    000014a8    00000004     
                  000014a8    00000004     release_pem3.oem3 (.const:ti_sysbios_rom_ROM_ti_sysbios_family_arm_cc26xx_Timer_getCurrentTick__E)

.const:ti_sysbios_rom_ROM_ti_sysbios_family_arm_cc26xx_Timer_getMaxTicks__E 
*          0    000014ac    00000004     
                  000014ac    00000004     release_pem3.oem3 (.const:ti_sysbios_rom_ROM_ti_sysbios_family_arm_cc26xx_Timer_getMaxTicks__E)

.const:ti_sysbios_rom_ROM_ti_sysbios_family_arm_cc26xx_Timer_initDevice__I 
*          0    000014b0    00000004     
                  000014b0    00000004     release_pem3.oem3 (.const:ti_sysbios_rom_ROM_ti_sysbios_family_arm_cc26xx_Timer_initDevice__I)

.const:ti_sysbios_rom_ROM_ti_sysbios_family_arm_cc26xx_Timer_setNextTick__E 
*          0    000014b4    00000004     
                  000014b4    00000004     release_pem3.oem3 (.const:ti_sysbios_rom_ROM_ti_sysbios_family_arm_cc26xx_Timer_setNextTick__E)

.const:ti_sysbios_rom_ROM_ti_sysbios_family_arm_cc26xx_Timer_setThreshold__I 
*          0    000014b8    00000004     
                  000014b8    00000004     release_pem3.oem3 (.const:ti_sysbios_rom_ROM_ti_sysbios_family_arm_cc26xx_Timer_setThreshold__I)

.const:ti_sysbios_rom_ROM_ti_sysbios_family_arm_cc26xx_Timer_start__E 
*          0    000014bc    00000004     
                  000014bc    00000004     release_pem3.oem3 (.const:ti_sysbios_rom_ROM_ti_sysbios_family_arm_cc26xx_Timer_start__E)

.const:ti_sysbios_rom_ROM_ti_sysbios_family_arm_cc26xx_TimestampProvider_get32__E 
*          0    000014c0    00000004     
                  000014c0    00000004     release_pem3.oem3 (.const:ti_sysbios_rom_ROM_ti_sysbios_family_arm_cc26xx_TimestampProvider_get32__E)

.const:ti_sysbios_rom_ROM_xdc_runtime_Startup_getState__I 
*          0    000014c4    00000004     
                  000014c4    00000004     release_pem3.oem3 (.const:ti_sysbios_rom_ROM_xdc_runtime_Startup_getState__I)

.const:ti_sysbios_rom_ROM_xdc_runtime_System_SupportProxy_abort__E 
*          0    000014c8    00000004     
                  000014c8    00000004     release_pem3.oem3 (.const:ti_sysbios_rom_ROM_xdc_runtime_System_SupportProxy_abort__E)

.const:ti_sysbios_rom_ROM_xdc_runtime_System_SupportProxy_exit__E 
*          0    000014cc    00000004     
                  000014cc    00000004     release_pem3.oem3 (.const:ti_sysbios_rom_ROM_xdc_runtime_System_SupportProxy_exit__E)

.const:ti_sysbios_gates_GateMutex_Instance_State_sem__O 
*          0    000014d0    00000004     
                  000014d0    00000004     release_pem3.oem3 (.const:ti_sysbios_gates_GateMutex_Instance_State_sem__O)

.const:ti_sysbios_knl_Clock_Module_State_clockQ__O 
*          0    000014d4    00000004     
                  000014d4    00000004     release_pem3.oem3 (.const:ti_sysbios_knl_Clock_Module_State_clockQ__O)

.const:ti_sysbios_knl_Mailbox_Instance_State_dataQue__O 
*          0    000014d8    00000004     
                  000014d8    00000004     release_pem3.oem3 (.const:ti_sysbios_knl_Mailbox_Instance_State_dataQue__O)

.const:ti_sysbios_knl_Mailbox_Instance_State_dataSem__O 
*          0    000014dc    00000004     
                  000014dc    00000004     release_pem3.oem3 (.const:ti_sysbios_knl_Mailbox_Instance_State_dataSem__O)

.const:ti_sysbios_knl_Mailbox_Instance_State_freeQue__O 
*          0    000014e0    00000004     
                  000014e0    00000004     release_pem3.oem3 (.const:ti_sysbios_knl_Mailbox_Instance_State_freeQue__O)

.const:ti_sysbios_knl_Mailbox_Instance_State_freeSem__O 
*          0    000014e4    00000004     
                  000014e4    00000004     release_pem3.oem3 (.const:ti_sysbios_knl_Mailbox_Instance_State_freeSem__O)

.const:ti_sysbios_knl_Semaphore_Instance_State_pendQ__O 
*          0    000014e8    00000004     
                  000014e8    00000004     release_pem3.oem3 (.const:ti_sysbios_knl_Semaphore_Instance_State_pendQ__O)

.const:ti_sysbios_knl_Task_Module_State_inactiveQ__O 
*          0    000014ec    00000004     
                  000014ec    00000004     release_pem3.oem3 (.const:ti_sysbios_knl_Task_Module_State_inactiveQ__O)

.data:ti_sysbios_knl_Task_Module__state__V 
*          0    20000100    00000044     UNINITIALIZED
                  20000100    00000044     release_pem3.oem3 (.data:ti_sysbios_knl_Task_Module__state__V)

.data:ti_sysbios_family_arm_m3_Hwi_Module__state__V 
*          0    20000144    00000034     UNINITIALIZED
                  20000144    00000034     release_pem3.oem3 (.data:ti_sysbios_family_arm_m3_Hwi_Module__state__V)

.data:ti_sysbios_knl_Clock_Module__state__V 
*          0    20000178    0000002c     UNINITIALIZED
                  20000178    0000002c     release_pem3.oem3 (.data:ti_sysbios_knl_Clock_Module__state__V)

.data:ti_sysbios_BIOS_Module__state__V 
*          0    200001a4    00000024     UNINITIALIZED
                  200001a4    00000024     release_pem3.oem3 (.data:ti_sysbios_BIOS_Module__state__V)

.data:ti_sysbios_knl_Swi_Module__state__V 
*          0    200001c8    0000001c     UNINITIALIZED
                  200001c8    0000001c     release_pem3.oem3 (.data:ti_sysbios_knl_Swi_Module__state__V)

.data:ti_sysbios_family_arm_cc26xx_Timer_Module__state__V 
*          0    200001e4    00000008     UNINITIALIZED
                  200001e4    00000008     release_pem3.oem3 (.data:ti_sysbios_family_arm_cc26xx_Timer_Module__state__V)

.data:ti_sysbios_family_arm_cc26xx_TimestampProvider_Module__state__V 
*          0    200001ec    00000004     UNINITIALIZED
                  200001ec    00000004     release_pem3.oem3 (.data:ti_sysbios_family_arm_cc26xx_TimestampProvider_Module__state__V)

.data:xdc_runtime_Startup_Module__state__V 
*          0    200001f0    00000008     UNINITIALIZED
                  200001f0    00000008     release_pem3.oem3 (.data:xdc_runtime_Startup_Module__state__V)

.data:xdc_runtime_System_Module__state__V 
*          0    200001f8    00000008     UNINITIALIZED
                  200001f8    00000008     release_pem3.oem3 (.data:xdc_runtime_System_Module__state__V)

.data:xdc_runtime_Memory_Module__state__V 
*          0    20000200    00000004     UNINITIALIZED
                  20000200    00000004     release_pem3.oem3 (.data:xdc_runtime_Memory_Module__state__V)

.data      0    20000208    00000a8a     UNINITIALIZED
                  20000208    000002b8     rf_multiMode_cc13x0.aem3 : RFCC26XX_multiMode.oem3 (.data:$O1$$)
                  200004c0    00000110     drivers_cc13x0.aem3 : PowerCC26XX.oem3 (.data:PowerCC26XX_module)
                  200005d0    00000060     smartrf_settings_predefined.obj (.data:pOverrides_hsm)
                  20000630    0000005c     smartrf_settings_predefined.obj (.data:pOverrides_lrm)
                  2000068c    0000005c     smartrf_settings_predefined.obj (.data:pOverrides_ook)
                  200006e8    00000058     smartrf_settings.obj (.data:pOverrides)
                  20000740    00000058     smartrf_settings_predefined.obj (.data:pOverrides_fsk)
                  20000798    0000004c     drivers_cc13x0.aem3 : GPIOCC26XX.oem3 (.data:$O1$$)
                  200007e4    0000004c     release_pem3.oem3 (.data:ti_sysbios_knl_Task_Object__table__V)
                  20000830    00000048     release_pem3.oem3 (.data:ti_sysbios_family_arm_cc26xx_Timer_Object__table__V)
                  20000878    0000003c     smartrf_settings_predefined.obj (.data)
                  200008b4    00000038     release_pem3.oem3 (.data:ti_sysbios_gates_GateMutex_Object__table__V)
                  200008ec    00000030     smartrf_settings_predefined.obj (.data:RF_cmdPropRxAdv_preDef)
                  2000091c    00000030     release_pem3.oem3 (.data:ti_sysbios_knl_Swi_Module_State_0_readyQ__A)
                  2000094c    00000030     release_pem3.oem3 (.data:ti_sysbios_knl_Swi_Object__table__V)
                  2000097c    00000030     release_pem3.oem3 (.data:ti_sysbios_knl_Task_Module_State_0_readyQ__A)
                  200009ac    00000028     smartrf_settings.obj (.data:RF_cmdPropRadioDivSetup)
                  200009d4    00000028     smartrf_settings_predefined.obj (.data:RF_cmdPropRadioDivSetup_fsk)
                  200009fc    00000028     smartrf_settings_predefined.obj (.data:RF_cmdPropRadioDivSetup_lrm)
                  20000a24    00000028     smartrf_settings_predefined.obj (.data:RF_cmdPropRadioDivSetup_ook)
                  20000a4c    00000024     smartrf_settings_predefined.obj (.data:RF_cmdRxHS)
                  20000a70    00000020     release_pem3.oem3 (.data:ti_sysbios_knl_Clock_Object__table__V)
                  20000a90    0000001c     EasyLink.obj (.data:txTestCmd$2)
                  20000aac    00000018     smartrf_settings.obj (.data:RF_cmdFs)
                  20000ac4    00000018     smartrf_settings_predefined.obj (.data:RF_cmdFs_preDef)
                  20000adc    00000018     smartrf_settings.obj (.data:RF_cmdPropTx)
                  20000af4    00000018     smartrf_settings_predefined.obj (.data:RF_cmdPropTx_preDef)
                  20000b0c    00000018     smartrf_settings_predefined.obj (.data:RF_cmdRadioSetup_hsm)
                  20000b24    00000018     EasyLink.obj (.data:addrFilterTable)
                  20000b3c    00000018     smartrf_settings_predefined.obj (.data:shapeovr)
                  20000b54    00000018     release_pem3.oem3 (.data:ti_sysbios_family_arm_m3_Hwi_Object__table__V)
                  20000b6c    00000018     release_pem3.oem3 (.data:ti_sysbios_heaps_HeapMem_Object__table__V)
                  20000b84    00000014     smartrf_settings_predefined.obj (.data:RF_cmdTxHS)
                  20000b98    00000010     smartrf_settings.obj (.data:RF_prop)
                  20000ba8    00000010     smartrf_settings_predefined.obj (.data:RF_prop_fsk)
                  20000bb8    00000010     smartrf_settings_predefined.obj (.data:RF_prop_hsm)
                  20000bc8    00000010     smartrf_settings_predefined.obj (.data:RF_prop_lrm)
                  20000bd8    00000010     smartrf_settings_predefined.obj (.data:RF_prop_ook)
                  20000be8    00000010     CC1310_LAUNCHXL.obj (.data:gpioPinConfigs)
                  20000bf8    0000000e     EasyLink.obj (.data)
                  20000c06    00000002     release_pem3.oem3 (.data:ti_sysbios_family_arm_m3_Hwi_Module_State_0_excActive__A)
                  20000c08    00000008     rtsv7M3_T_le_eabi.lib : _lock.obj (.data:$O1$$)
                  20000c10    00000008     CC1310_LAUNCHXL.obj (.data:gpioCallbackFunctions)
                  20000c18    00000008     release_pem3.oem3 (.data:ti_sysbios_family_arm_m3_Hwi_Module__root__V)
                  20000c20    00000008     release_pem3.oem3 (.data:ti_sysbios_gates_GateHwi_Module__root__V)
                  20000c28    00000008     release_pem3.oem3 (.data:ti_sysbios_gates_GateMutex_Module__root__V)
                  20000c30    00000008     release_pem3.oem3 (.data:ti_sysbios_hal_Hwi_Module__root__V)
                  20000c38    00000008     release_pem3.oem3 (.data:ti_sysbios_heaps_HeapMem_Module__root__V)
                  20000c40    00000008     release_pem3.oem3 (.data:ti_sysbios_knl_Clock_Module__root__V)
                  20000c48    00000008     release_pem3.oem3 (.data:ti_sysbios_knl_Event_Module__root__V)
                  20000c50    00000008     release_pem3.oem3 (.data:ti_sysbios_knl_Mailbox_Module__root__V)
                  20000c58    00000008     release_pem3.oem3 (.data:ti_sysbios_knl_Queue_Module__root__V)
                  20000c60    00000008     release_pem3.oem3 (.data:ti_sysbios_knl_Semaphore_Module__root__V)
                  20000c68    00000008     release_pem3.oem3 (.data:ti_sysbios_knl_Swi_Module__root__V)
                  20000c70    00000008     release_pem3.oem3 (.data:ti_sysbios_knl_Task_Module__root__V)
                  20000c78    00000008     release_pem3.oem3 (.data:xdc_runtime_System_Module_State_0_atexitHandlers__A)
                  20000c80    00000004     rtsv7M3_T_le_eabi.lib : stkdepth_vars.obj (.data)
                  20000c84    00000004     release_pem3.oem3 (.data:ti_sysbios_family_arm_m3_Hwi_Module_State_0_excContext__A)
                  20000c88    00000004     release_pem3.oem3 (.data:ti_sysbios_family_arm_m3_Hwi_Module_State_0_excStack__A)
                  20000c8c    00000004     release_pem3.oem3 (.data:ti_sysbios_knl_Task_Module_State_0_idleTask__A)
                  20000c90    00000001     NodeRadioTask.obj (.data)
                  20000c91    00000001     drivers_cc13x0.aem3 : UART.oem3 (.data)

.bss       0    20000c98    000017a5     UNINITIALIZED
                  20000c98    00000400     NodeTask.obj (.bss:commissionTaskStack)
                  20001098    00000400     NodeRadioTask.obj (.bss:nodeRadioTaskStack)
                  20001498    00000400     NodeTask.obj (.bss:nodeTaskStack)
                  20001898    00000200     release_pem3.oem3 (.bss:taskStackSection)
                  20001a98    0000012c     (.common:uartCC26XXObjects)
                  20001bc4    00000110     drivers_cc13x0.aem3 : PINCC26XX.oem3 (.bss:$O1$$)
                  20001cd4    000000c8     (.common:ti_sysbios_family_arm_m3_Hwi_dispatchTable)
                  20001d9c    00000004     (.common:count)
                  20001da0    000000c0     EasyLink.obj (.bss:rfObject)
                  20001e60    0000009c     NodeRadioTask.obj (.bss:currentRadioOperation)
                  20001efc    00000098     EasyLink.obj (.bss:rxBuffer)
                  20001f94    00000098     EasyLink.obj (.bss:rxPacket$1)
                  2000202c    0000008c     EasyLink.obj (.bss:txBuffer)
                  200020b8    00000050     (.common:commissionTask)
                  20002108    00000050     (.common:nodeRadioTask)
                  20002158    00000050     (.common:nodeTask)
                  200021a8    0000003c     NodeTask.obj (.bss:commissionTaskParams)
                  200021e4    0000003c     NodeRadioTask.obj (.bss:nodeRadioTaskParams)
                  20002220    0000003c     NodeTask.obj (.bss:nodeTaskParams)
                  2000225c    00000030     EasyLink.obj (.bss:EasyLink_cmdPropRxAdv)
                  2000228c    00000028     EasyLink.obj (.bss:EasyLink_cmdPropRadioSetup)
                  200022b4    00000024     scif_framework.obj (.bss:scifData)
                  200022d8    00000024     (.common:fastReportTimeoutClock)
                  200022fc    0000001c     (.common:radioAccessSem)
                  20002318    0000001c     (.common:radioResultSem)
                  20002334    00000018     EasyLink.obj (.bss:EasyLink_cmdFs)
                  2000234c    00000018     EasyLink.obj (.bss:EasyLink_cmdPropTx)
                  20002364    00000014     NodeRadioTask.obj (.bss)
                  20002378    00000014     driverlib.lib : osc.obj (.bss:oscHfGlobals)
                  2000238c    00000014     EasyLink.obj (.bss:rfParams)
                  200023a0    00000014     (.common:commissionEvent)
                  200023b4    00000014     (.common:nodeEvent)
                  200023c8    00000014     (.common:radioOperationEvent)
                  200023dc    00000010     EasyLink.obj (.bss)
                  200023ec    00000010     EasyLink.obj (.bss:EasyLink_RF_prop)
                  200023fc    00000010     NodeTask.obj (.bss)
                  2000240c    00000010     NodeRadioTask.obj (.bss:dmSensorPacket)
                  2000241c    0000000c     EasyLink.obj (.bss:rxStatistics)
                  20002428    00000008     EasyLink.obj (.bss:dataQueue)
                  20002430    00000008     driverlib.lib : sys_ctrl.obj (.bss:powerQualGlobals)
                  20002438    00000002     drivers_cc13x0.aem3 : UARTCC26XX.oem3 (.bss)
                  2000243a    00000002     rf_multiMode_cc13x0.aem3 : RFCC26XX_multiMode.oem3 (.bss)
                  2000243c    00000001     (.common:driverlib_release_0_47555)

.sysmem    0    2000243d    00000000     UNINITIALIZED

.nonretenvar 
*          0    2000243d    00000000     UNINITIALIZED

empty      0    2000243d    00000000     UNINITIALIZED

.stack     0    20004c00    00000400     UNINITIALIZED
                  20004c00    00000400     --HOLE--

.bootVecs 
*          0    00000000    00000008     DSECT
                  00000000    00000008     boot.aem3 : boot.oem3 (.bootVecs)

.resetVecs 
*          0    00000000    0000003c     
                  00000000    0000003c     release_pem3.oem3 (.resetVecs)

.vecs      0    20000000    000000c8     NOLOAD SECTION
                  20000000    000000c8     release_pem3.oem3 (.vecs)

xdc.meta   0    00000000    00000100     COPY SECTION
                  00000000    00000100     release_pem3.oem3 (xdc.meta)

xdc.noload 
*          0    00000000    00000000     COPY SECTION

.binit     0    00000000    00000000     

MODULE SUMMARY

       Module                            code    ro data   rw data
       ------                            ----    -------   -------
    ./
       NodeTask.obj                      664     22        2424   
       NodeRadioTask.obj                 1486    0         1433   
       CC1310_LAUNCHXL.obj               52      144       324    
       ccfg.obj                          0       88        0      
       SceAdc.obj                        36      0         0      
       rfWsnNode.obj                     26      0         0      
    +--+---------------------------------+-------+---------+---------+
       Total:                            2264    254       4181   
                                                                  
    ./easylink/
       EasyLink.obj                      2750    0         910    
    +--+---------------------------------+-------+---------+---------+
       Total:                            2750    0         910    
                                                                  
    ./sce/
       scif_framework.obj                112     0         36     
    +--+---------------------------------+-------+---------+---------+
       Total:                            112     0         36     
                                                                  
    ./smartrf_settings/
       smartrf_settings_predefined.obj   2074    11232     812    
       smartrf_settings.obj              442     2368      192    
    +--+---------------------------------+-------+---------+---------+
       Total:                            2516    13600     1004   
                                                                  
    /home/mike/Master_CC13xx/tirtos_builds_CC1310_LAUNCHXL_release_ccs/Debug/configPkg/package/cfg/
       release_pem3.oem3                 472     1531      1718   
    +--+---------------------------------+-------+---------+---------+
       Total:                            472     1531      1718   
                                                                  
    /home/mike/Master_CC13xx/tirtos_builds_CC1310_LAUNCHXL_release_ccs/src/sysbios/rom_sysbios.aem3
       rom_sysbios.obj                   1242    0         0      
    +--+---------------------------------+-------+---------+---------+
       Total:                            1242    0         0      
                                                                  
    /home/mike/ti/tirex-content/simplelink_cc13x0_sdk_1_00_00_13/kernel/tirtos/packages/ti/dpl/lib/dpl_cc13x0.aem3
       PowerCC26XX_tirtos.oem3           212     0         0      
       HwiP_tirtos.oem3                  4       0         0      
    +--+---------------------------------+-------+---------+---------+
       Total:                            216     0         0      
                                                                  
    /home/mike/ti/tirex-content/simplelink_cc13x0_sdk_1_00_00_13/kernel/tirtos/packages/ti/targets/arm/rtsarm/lib/auto_init.aem3
       auto_init.oem3                    160     0         0      
    +--+---------------------------------+-------+---------+---------+
       Total:                            160     0         0      
                                                                  
    /home/mike/ti/tirex-content/simplelink_cc13x0_sdk_1_00_00_13/kernel/tirtos/packages/ti/targets/arm/rtsarm/lib/boot.aem3
       boot.oem3                         68      0         0      
    +--+---------------------------------+-------+---------+---------+
       Total:                            68      0         0      
                                                                  
    /home/mike/ti/tirex-content/simplelink_cc13x0_sdk_1_00_00_13/source/ti/devices/cc13x0/driverlib/bin/ccs/driverlib.lib
       setup_rom.obj                     1472    0         0      
       sys_ctrl.obj                      748     0         8      
       rfc.obj                           636     24        0      
       osc.obj                           388     0         20     
       setup.obj                         364     0         0      
       chipinfo.obj                      182     0         0      
       aon_rtc.obj                       44      0         0      
       ddi.obj                           44      0         0      
       adi.obj                           40      0         0      
       aon_batmon.obj                    40      0         0      
       cpu.obj                           24      0         0      
       vims.obj                          14      0         0      
       driverlib_release.obj             0       0         1      
    +--+---------------------------------+-------+---------+---------+
       Total:                            3996    24        29     
                                                                  
    /home/mike/ti/tirex-content/simplelink_cc13x0_sdk_1_00_00_13/source/ti/drivers/lib/drivers_cc13x0.aem3
       UARTCC26XX.oem3                   2634    104       2      
       PowerCC26XX.oem3                  2068    76        272    
       PINCC26XX.oem3                    1422    0         272    
       PowerCC26XX_calibrateRCOSC.oem3   1384    0         0      
       GPIOCC26XX.oem3                   768     64        76     
       UART.oem3                         172     36        1      
       RingBuf.oem3                      148     0         0      
       List.oem3                         80      0         0      
    +--+---------------------------------+-------+---------+---------+
       Total:                            8676    280       623    
                                                                  
    /home/mike/ti/tirex-content/simplelink_cc13x0_sdk_1_00_00_13/source/ti/drivers/rf/lib/rf_multiMode_cc13x0.aem3
       RFCC26XX_multiMode.oem3           5306    20        698    
    +--+---------------------------------+-------+---------+---------+
       Total:                            5306    20        698    
                                                                  
    /opt/ti/ccsv7/tools/compiler/ti-cgt-arm_16.9.0.LTS/lib/rtsv7M3_T_le_eabi.lib
       ull_div_t2.obj                    500     0         0      
       memcpy_t2.obj                     156     0         0      
       memset_t2.obj                     122     0         0      
       copy_decompress_lzss.obj          104     0         0      
       cpy_tbl.obj                       76      0         0      
       _lock.obj                         20      0         8      
       args_main.obj                     24      0         0      
       ll_mul_t2.obj                     24      0         0      
       copy_decompress_none.obj          14      0         0      
       copy_zero_init.obj                12      0         0      
       stkdepth_vars.obj                 0       0         4      
    +--+---------------------------------+-------+---------+---------+
       Total:                            1052    0         12     
                                                                  
       Stack:                            0       0         1024   
       Linker Generated:                 504     1035      0      
    +--+---------------------------------+-------+---------+---------+
       Grand Total:                      29334   16744     10235  


LINKER GENERATED COPY TABLES

__TI_cinit_table @ 000003f0 records: 12, size/record: 8, table size: 96
	.data: load addr=00000040, load size=000002d5 bytes, run addr=20000208, run size=00000a8a bytes, compression=lzss
	.data:ti_sysbios_family_arm_m3_Hwi_Module__state__V: load addr=00000315, load size=00000028 bytes, run addr=20000144, run size=00000034 bytes, compression=lzss
	.data:ti_sysbios_knl_Task_Module__state__V: load addr=0000033d, load size=00000021 bytes, run addr=20000100, run size=00000044 bytes, compression=lzss
	.data:ti_sysbios_BIOS_Module__state__V: load addr=0000035e, load size=0000001f bytes, run addr=200001a4, run size=00000024 bytes, compression=lzss
	.data:ti_sysbios_knl_Clock_Module__state__V: load addr=0000037d, load size=0000001e bytes, run addr=20000178, run size=0000002c bytes, compression=lzss
	.data:ti_sysbios_knl_Swi_Module__state__V: load addr=0000039b, load size=00000010 bytes, run addr=200001c8, run size=0000001c bytes, compression=lzss
	.data:ti_sysbios_family_arm_cc26xx_Timer_Module__state__V: load addr=000003b8, load size=0000000b bytes, run addr=200001e4, run size=00000008 bytes, compression=lzss
	.data:xdc_runtime_System_Module__state__V: load addr=000003c3, load size=0000000b bytes, run addr=200001f8, run size=00000008 bytes, compression=lzss
	.bss: load addr=000003d0, load size=00000008 bytes, run addr=20000c98, run size=000017a5 bytes, compression=zero_init
	.data:xdc_runtime_Memory_Module__state__V: load addr=000003d8, load size=00000008 bytes, run addr=20000200, run size=00000004 bytes, compression=lzss
	.data:ti_sysbios_family_arm_cc26xx_TimestampProvider_Module__state__V: load addr=000003e0, load size=00000007 bytes, run addr=200001ec, run size=00000004 bytes, compression=lzss
	.data:xdc_runtime_Startup_Module__state__V: load addr=000003e7, load size=00000007 bytes, run addr=200001f0, run size=00000008 bytes, compression=lzss


LINKER GENERATED HANDLER TABLE

__TI_handler_table @ 000003ac records: 3, size/record: 4, table size: 12
	index: 0, handler: __TI_decompress_lzss
	index: 1, handler: __TI_decompress_none
	index: 2, handler: __TI_zero_init


FAR CALL TRAMPOLINES

callee name               trampoline name
   callee addr  tramp addr   call addr  call info
--------------  -----------  ---------  ----------------
xdc_runtime_Core_assignParams__I  $Tramp$TT$L$PI$$xdc_runtime_Core_assignParams__I
   1001c5ed     00008590     000084b8   release_pem3.oem3 (.text:ti_sysbios_knl_Event_Params__init__S)
xdc_runtime_Startup_startMods__I  $Tramp$TT$L$PI$$xdc_runtime_Startup_startMods__I
   1001c309     00008598     00008344   release_pem3.oem3 (.text:xdc_runtime_Startup_exec__I)
ti_sysbios_knl_Queue_construct  $Tramp$TT$L$PI$$ti_sysbios_knl_Queue_construct
   1001b8f1     000085a0     0000831e   rom_sysbios.aem3 : rom_sysbios.obj (.text:ti_sysbios_knl_Event_Instance_init__E)
ti_sysbios_knl_Clock_logTick__E  $Tramp$TT$L$PI$$ti_sysbios_knl_Clock_logTick__E
   1001be63     000085a8     00008302   release_pem3.oem3 (.text:ti_sysbios_knl_Clock_doTick__I)
ti_sysbios_knl_Task_Params__init__S  $Tramp$TT$L$PI$$ti_sysbios_knl_Task_Params__init__S
   1001c1d5     000085b0     00008292   NodeRadioTask.obj (.text:ti_sysbios_knl_Task_Params_init)
                             000082a8   NodeTask.obj (.text:ti_sysbios_knl_Task_Params_init)
ti_sysbios_BIOS_RtsGateProxy_leave__E  $Tramp$TT$L$PI$$ti_sysbios_BIOS_RtsGateProxy_leave__E
   1001c249     000085b8     000081ae   release_pem3.oem3 (.text:ti_sysbios_BIOS_rtsUnlock__I)
ti_sysbios_BIOS_start__E  $Tramp$TT$L$PI$$ti_sysbios_BIOS_start__E
   1001c051     000085c0     00008000   rfWsnNode.obj (.text:main)
ti_sysbios_BIOS_RtsGateProxy_enter__E  $Tramp$TT$L$PI$$ti_sysbios_BIOS_RtsGateProxy_enter__E
   1001c245     000085c8     00007dce   release_pem3.oem3 (.text:ti_sysbios_BIOS_rtsLock__I)
xdc_runtime_Core_constructObject__I  $Tramp$TT$L$PI$$xdc_runtime_Core_constructObject__I
   1001c635     000085d0     00007b2c   release_pem3.oem3 (.text:ti_sysbios_knl_Event_construct)
ti_sysbios_knl_Task_startup__E  $Tramp$TT$L$PI$$ti_sysbios_knl_Task_startup__E
   1001c305     000085d8     0000791c   release_pem3.oem3 (.text:ti_sysbios_BIOS_startFunc__I)
ti_sysbios_knl_Swi_startup__E  $Tramp$TT$L$PI$$ti_sysbios_knl_Swi_startup__E
   1001c239     000085e0     00007918   release_pem3.oem3 (.text:ti_sysbios_BIOS_startFunc__I)
ti_sysbios_hal_Hwi_startup__E  $Tramp$TT$L$PI$$ti_sysbios_hal_Hwi_startup__E
   1001c289     000085e8     00007914   release_pem3.oem3 (.text:ti_sysbios_BIOS_startFunc__I)
ti_sysbios_family_arm_cc26xx_Timer_startup__E  $Tramp$TT$L$PI$$ti_sysbios_family_arm_cc26xx_Timer_startup__E
   1001b791     000085f0     00007910   release_pem3.oem3 (.text:ti_sysbios_BIOS_startFunc__I)
xdc_runtime_System_atexit__E  $Tramp$TT$L$PI$$xdc_runtime_System_atexit__E
   1001c67d     000085f8     00007908   release_pem3.oem3 (.text:ti_sysbios_BIOS_startFunc__I)
ti_sysbios_BIOS_setThreadType__E  $Tramp$TT$L$PI$$ti_sysbios_BIOS_setThreadType__E
   1001c041     00008600     000078d4   release_pem3.oem3 (.text:ti_sysbios_BIOS_atExitFunc__I)
                             0000821e   release_pem3.oem3 (.text:ti_sysbios_BIOS_exitFunc__I)
xdc_runtime_System_exit__E  $Tramp$TT$L$PI$$xdc_runtime_System_exit__E
   1001c7cd     00008608     00007270   boot.aem3 : boot.oem3 (.text)
                             00008224   release_pem3.oem3 (.text:ti_sysbios_BIOS_exitFunc__I)
ti_sysbios_heaps_HeapMem_restore__E  $Tramp$TT$L$PI$$ti_sysbios_heaps_HeapMem_restore__E
   1001c101     00008610     00006c84   rom_sysbios.aem3 : rom_sysbios.obj (.text:ti_sysbios_heaps_HeapMem_initPrimary__I)
ti_sysbios_heaps_HeapMem_Object__get__S  $Tramp$TT$L$PI$$ti_sysbios_heaps_HeapMem_Object__get__S
   1001b86d     00008618     00006c54   rom_sysbios.aem3 : rom_sysbios.obj (.text:ti_sysbios_heaps_HeapMem_initPrimary__I)
ti_sysbios_knl_Task_unblockI__E  $Tramp$TT$L$PI$$ti_sysbios_knl_Task_unblockI__E
   1001b9a1     00008620     0000640c   rom_sysbios.aem3 : rom_sysbios.obj (.text:ti_sysbios_knl_Event_post__E)
                             00007b62                    : rom_sysbios.obj (.text:ti_sysbios_knl_Event_pendTimeout__I)
ti_sysbios_knl_Queue_remove__E  $Tramp$TT$L$PI$$ti_sysbios_knl_Queue_remove__E
   1001c11d     00008628     000063f8   rom_sysbios.aem3 : rom_sysbios.obj (.text:ti_sysbios_knl_Event_post__E)
                             00007b56                    : rom_sysbios.obj (.text:ti_sysbios_knl_Event_pendTimeout__I)
ti_sysbios_knl_Queue_head__E  $Tramp$TT$L$PI$$ti_sysbios_knl_Queue_head__E
   1001c2d1     00008630     000063e2   rom_sysbios.aem3 : rom_sysbios.obj (.text:ti_sysbios_knl_Event_post__E)
ti_sysbios_knl_Queue_empty__E  $Tramp$TT$L$PI$$ti_sysbios_knl_Queue_empty__E
   1001c10f     00008638     000063d4   rom_sysbios.aem3 : rom_sysbios.obj (.text:ti_sysbios_knl_Event_post__E)
ti_sysbios_knl_Clock_scheduleNextTick__E  $Tramp$TT$L$PI$$ti_sysbios_knl_Clock_scheduleNextTick__E
   1001beb9     00008640     00005b24   rom_sysbios.aem3 : rom_sysbios.obj (.text:ti_sysbios_knl_Clock_workFuncDynamic__E)
ti_sysbios_knl_Clock_walkQueueDynamic__E  $Tramp$TT$L$PI$$ti_sysbios_knl_Clock_walkQueueDynamic__E
   1001a809     00008648     00005aee   rom_sysbios.aem3 : rom_sysbios.obj (.text:ti_sysbios_knl_Clock_workFuncDynamic__E)
                             00005b08                    : rom_sysbios.obj (.text:ti_sysbios_knl_Clock_workFuncDynamic__E)
ti_sysbios_knl_Clock_TimerProxy_getCurrentTick__E  $Tramp$TT$L$PI$$ti_sysbios_knl_Clock_TimerProxy_getCurrentTick__E
   1001c091     00008650     00005abe   rom_sysbios.aem3 : rom_sysbios.obj (.text:ti_sysbios_knl_Clock_workFuncDynamic__E)
                             00007afa                    : rom_sysbios.obj (.text:ti_sysbios_knl_Clock_getTicksUntilInterrupt__E)
ti_sysbios_knl_Task_construct  $Tramp$TT$L$PI$$ti_sysbios_knl_Task_construct
   1001b125     00008658     00005616   NodeRadioTask.obj (.text:NodeRadioTask_init)
                             000058a4   NodeTask.obj (.text:NodeTask_init)
                             00006540   NodeTask.obj (.text:commissionTask_init)
ti_sysbios_family_arm_m3_Hwi_enableInterrupt__E  $Tramp$TT$L$PI$$ti_sysbios_family_arm_m3_Hwi_enableInterrupt__E
   1001b295     00008660     000054cc   rf_multiMode_cc13x0.aem3 : RFCC26XX_multiMode.oem3 (.text:fsmPowerUpState)
ti_sysbios_BIOS_getCpuFreq__E  $Tramp$TT$L$PI$$ti_sysbios_BIOS_getCpuFreq__E
   1001bff5     00008668     000053cc   drivers_cc13x0.aem3 : UARTCC26XX.oem3 (.text:UARTCC26XX_initHw)
ti_sysbios_knl_Clock_removeI__E  $Tramp$TT$L$PI$$ti_sysbios_knl_Clock_removeI__E
   1001c2b9     00008670     00004a48   rom_sysbios.aem3 : rom_sysbios.obj (.text:ti_sysbios_knl_Event_pend__E)
                             00004a68                    : rom_sysbios.obj (.text:ti_sysbios_knl_Event_pend__E)
ti_sysbios_knl_Clock_startI__E  $Tramp$TT$L$PI$$ti_sysbios_knl_Clock_startI__E
   1001a715     00008678     00004a2e   rom_sysbios.aem3 : rom_sysbios.obj (.text:ti_sysbios_knl_Event_pend__E)
ti_sysbios_knl_Task_blockI__E  $Tramp$TT$L$PI$$ti_sysbios_knl_Task_blockI__E
   1001b611     00008680     00004a1e   rom_sysbios.aem3 : rom_sysbios.obj (.text:ti_sysbios_knl_Event_pend__E)
ti_sysbios_knl_Queue_enqueue__E  $Tramp$TT$L$PI$$ti_sysbios_knl_Queue_enqueue__E
   1001c1b1     00008688     00004a18   rom_sysbios.aem3 : rom_sysbios.obj (.text:ti_sysbios_knl_Event_pend__E)
ti_sysbios_knl_Task_self__E  $Tramp$TT$L$PI$$ti_sysbios_knl_Task_self__E
   1001c1e1     00008690     000049de   rom_sysbios.aem3 : rom_sysbios.obj (.text:ti_sysbios_knl_Event_pend__E)
ti_sysbios_knl_Clock_addI__E  $Tramp$TT$L$PI$$ti_sysbios_knl_Clock_addI__E
   1001ba1d     00008698     000049bc   rom_sysbios.aem3 : rom_sysbios.obj (.text:ti_sysbios_knl_Event_pend__E)
ti_sysbios_family_arm_m3_Hwi_destruct  $Tramp$TT$L$PI$$ti_sysbios_family_arm_m3_Hwi_destruct
   1001c25d     000086a0     00004568   rf_multiMode_cc13x0.aem3 : RFCC26XX_multiMode.oem3 (.text:RF_close)
                             00004578                            : RFCC26XX_multiMode.oem3 (.text:RF_close)
                             000061a6   drivers_cc13x0.aem3 : UARTCC26XX.oem3 (.text:UARTCC26XX_close)
ti_sysbios_knl_Swi_destruct  $Tramp$TT$L$PI$$ti_sysbios_knl_Swi_destruct
   1001c2e5     000086a8     00004560   rf_multiMode_cc13x0.aem3 : RFCC26XX_multiMode.oem3 (.text:RF_close)
                             00004570                            : RFCC26XX_multiMode.oem3 (.text:RF_close)
                             000061ae   drivers_cc13x0.aem3 : UARTCC26XX.oem3 (.text:UARTCC26XX_close)
ti_sysbios_knl_Clock_destruct  $Tramp$TT$L$PI$$ti_sysbios_knl_Clock_destruct
   1001c2b5     000086b0     00004550   rf_multiMode_cc13x0.aem3 : RFCC26XX_multiMode.oem3 (.text:RF_close)
                             00004558                            : RFCC26XX_multiMode.oem3 (.text:RF_close)
                             00004580                            : RFCC26XX_multiMode.oem3 (.text:RF_close)
                             000045ae                            : RFCC26XX_multiMode.oem3 (.text:RF_close)
                             000045b6                            : RFCC26XX_multiMode.oem3 (.text:RF_close)
                             000061ce   drivers_cc13x0.aem3 : UARTCC26XX.oem3 (.text:UARTCC26XX_close)
ti_sysbios_knl_Semaphore_destruct  $Tramp$TT$L$PI$$ti_sysbios_knl_Semaphore_destruct
   1001c2dd     000086b8     00004548   rf_multiMode_cc13x0.aem3 : RFCC26XX_multiMode.oem3 (.text:RF_close)
                             000045a6                            : RFCC26XX_multiMode.oem3 (.text:RF_close)
                             000061ba   drivers_cc13x0.aem3 : UARTCC26XX.oem3 (.text:UARTCC26XX_close)
                             000061c6                       : UARTCC26XX.oem3 (.text:UARTCC26XX_close)
ti_sysbios_knl_Swi_post__E  $Tramp$TT$L$PI$$ti_sysbios_knl_Swi_post__E
   1001b31d     000086c0     0000417c   drivers_cc13x0.aem3 : UARTCC26XX.oem3 (.text:UARTCC26XX_read)
                             00004428                       : UARTCC26XX.oem3 (.text:UARTCC26XX_hwiIntFxn)
                             000081cc   rom_sysbios.aem3 : rom_sysbios.obj (.text:ti_sysbios_knl_Swi_or__E)
                             0000830a   release_pem3.oem3 (.text:ti_sysbios_knl_Clock_doTick__I)
ti_sysbios_knl_Clock_setTimeout__E  $Tramp$TT$L$PI$$ti_sysbios_knl_Clock_setTimeout__E
   1001c2bd     000086c8     0000394c   drivers_cc13x0.aem3 : PowerCC26XX.oem3 (.text:Power_init)
                             00003f38   rf_multiMode_cc13x0.aem3 : RFCC26XX_multiMode.oem3 (.text:radioOpDoneCb)
                             00004fd6   dpl_cc13x0.aem3 : PowerCC26XX_tirtos.oem3 (.text:PowerCC26XX_standbyPolicy)
                             00005b7a   NodeTask.obj (.text:nodeTaskFunction)
                             00005c4e   drivers_cc13x0.aem3 : UARTCC26XX.oem3 (.text:writeFinishedDoCallback)
                             00005e3a                       : PowerCC26XX.oem3 (.text:disableLFClockQualifiers)
                             00005f56                       : PowerCC26XX.oem3 (.text:switchXOSCHFclockFunc)
                             0000688c   rf_multiMode_cc13x0.aem3 : RFCC26XX_multiMode.oem3 (.text:dispatchOpWhen)
                             00006c18                            : RFCC26XX_multiMode.oem3 (.text:fsmXOSCState)
                             00006f38   drivers_cc13x0.aem3 : PowerCC26XX.oem3 (.text:configureXOSCHF)
                             00007032                       : UARTCC26XX.oem3 (.text:startTxFifoEmptyClk)
ti_sysbios_knl_Task_sleep__E  $Tramp$TT$L$PI$$ti_sysbios_knl_Task_sleep__E
   1001a9d9     000086d0     000032ca   EasyLink.obj (.text:enableTestMode)
ti_sysbios_knl_Clock_construct  $Tramp$TT$L$PI$$ti_sysbios_knl_Clock_construct
   1001b575     000086d8     00002b9a   drivers_cc13x0.aem3 : UARTCC26XX.oem3 (.text:UARTCC26XX_open)
                             000038a2                       : PowerCC26XX.oem3 (.text:Power_init)
                             000038b0                       : PowerCC26XX.oem3 (.text:Power_init)
                             000038be                       : PowerCC26XX.oem3 (.text:Power_init)
                             00004006   rf_multiMode_cc13x0.aem3 : RFCC26XX_multiMode.oem3 (.text:rf_init)
                             00004966                            : RFCC26XX_multiMode.oem3 (.text:RF_open)
                             00004982                            : RFCC26XX_multiMode.oem3 (.text:RF_open)
                             00005874   NodeTask.obj (.text:NodeTask_init)
                             000064d8   drivers_cc13x0.aem3 : PowerCC26XX.oem3 (.text:PowerCC26XX_calibrate)
ti_sysbios_knl_Clock_Params__init__S  $Tramp$TT$L$PI$$ti_sysbios_knl_Clock_Params__init__S
   1001c181     000086e0     00002b84   drivers_cc13x0.aem3 : UARTCC26XX.oem3 (.text:UARTCC26XX_open)
                             0000388a                       : PowerCC26XX.oem3 (.text:Power_init)
                             00004956   rf_multiMode_cc13x0.aem3 : RFCC26XX_multiMode.oem3 (.text:RF_open)
                             00004972                            : RFCC26XX_multiMode.oem3 (.text:RF_open)
                             000064c0   drivers_cc13x0.aem3 : PowerCC26XX.oem3 (.text:PowerCC26XX_calibrate)
ti_sysbios_knl_Clock_start__E  $Tramp$TT$L$PI$$ti_sysbios_knl_Clock_start__E
   1001bfdf     000086e8     00002a1a   drivers_cc13x0.aem3 : PowerCC26XX_calibrateRCOSC.oem3 (.text:PowerCC26XX_doCalibrate)
                             00003424   rf_multiMode_cc13x0.aem3 : RFCC26XX_multiMode.oem3 (.text:RF_postCmd)
                             00003952   drivers_cc13x0.aem3 : PowerCC26XX.oem3 (.text:Power_init)
                             00003f40   rf_multiMode_cc13x0.aem3 : RFCC26XX_multiMode.oem3 (.text:radioOpDoneCb)
                             00004250                            : RFCC26XX_multiMode.oem3 (.text:hwiFxnCpe0Active)
                             00004fdc   dpl_cc13x0.aem3 : PowerCC26XX_tirtos.oem3 (.text:PowerCC26XX_standbyPolicy)
                             00005b82   NodeTask.obj (.text:nodeTaskFunction)
                             00005c54   drivers_cc13x0.aem3 : UARTCC26XX.oem3 (.text:writeFinishedDoCallback)
                             00005e40                       : PowerCC26XX.oem3 (.text:disableLFClockQualifiers)
                             00005f5c                       : PowerCC26XX.oem3 (.text:switchXOSCHFclockFunc)
                             00006c1e   rf_multiMode_cc13x0.aem3 : RFCC26XX_multiMode.oem3 (.text:fsmXOSCState)
                             00006f3e   drivers_cc13x0.aem3 : PowerCC26XX.oem3 (.text:configureXOSCHF)
                             00007038                       : UARTCC26XX.oem3 (.text:startTxFifoEmptyClk)
                             00007e1a   rom_sysbios.aem3 : rom_sysbios.obj (.text:ti_sysbios_knl_Clock_stop__E)
xdc_runtime_System_abortSpin__E  $Tramp$TT$L$PI$$xdc_runtime_System_abortSpin__E
   1001c895     000086f0     00002992   drivers_cc13x0.aem3 : PowerCC26XX_calibrateRCOSC.oem3 (.text:PowerCC26XX_doCalibrate)
                             00006a38                       : PowerCC26XX_calibrateRCOSC.oem3 (.text:PowerCC26XX_RCOSC_clockFunc)
ti_sysbios_knl_Swi_construct  $Tramp$TT$L$PI$$ti_sysbios_knl_Swi_construct
   1001b085     000086f8     00002860   drivers_cc13x0.aem3 : PINCC26XX.oem3 (.text:PIN_init)
                             00002b40                       : UARTCC26XX.oem3 (.text:UARTCC26XX_open)
                             00003f8e   rf_multiMode_cc13x0.aem3 : RFCC26XX_multiMode.oem3 (.text:rf_init)
                             00003fd2                            : RFCC26XX_multiMode.oem3 (.text:rf_init)
ti_sysbios_knl_Swi_Params__init__S  $Tramp$TT$L$PI$$ti_sysbios_knl_Swi_Params__init__S
   1001c1c9     00008700     0000284c   drivers_cc13x0.aem3 : PINCC26XX.oem3 (.text:PIN_init)
                             00002b2c                       : UARTCC26XX.oem3 (.text:UARTCC26XX_open)
                             00003f78   rf_multiMode_cc13x0.aem3 : RFCC26XX_multiMode.oem3 (.text:rf_init)
                             00003fc0                            : RFCC26XX_multiMode.oem3 (.text:rf_init)
ti_sysbios_family_arm_m3_Hwi_construct  $Tramp$TT$L$PI$$ti_sysbios_family_arm_m3_Hwi_construct
   1001af29     00008708     00002840   drivers_cc13x0.aem3 : PINCC26XX.oem3 (.text:PIN_init)
                             00002b20                       : UARTCC26XX.oem3 (.text:UARTCC26XX_open)
                             00003fb4   rf_multiMode_cc13x0.aem3 : RFCC26XX_multiMode.oem3 (.text:rf_init)
                             00003ff8                            : RFCC26XX_multiMode.oem3 (.text:rf_init)
                             000064e8   drivers_cc13x0.aem3 : PowerCC26XX.oem3 (.text:PowerCC26XX_calibrate)
ti_sysbios_family_arm_m3_Hwi_Params__init__S  $Tramp$TT$L$PI$$ti_sysbios_family_arm_m3_Hwi_Params__init__S
   1001c139     00008710     00002828   drivers_cc13x0.aem3 : PINCC26XX.oem3 (.text:PIN_init)
                             00002b08                       : UARTCC26XX.oem3 (.text:UARTCC26XX_open)
                             00003f9a   rf_multiMode_cc13x0.aem3 : RFCC26XX_multiMode.oem3 (.text:rf_init)
                             00003fde                            : RFCC26XX_multiMode.oem3 (.text:rf_init)
ti_sysbios_knl_Semaphore_construct  $Tramp$TT$L$PI$$ti_sysbios_knl_Semaphore_construct
   1001b705     00008718     000027c6   drivers_cc13x0.aem3 : PINCC26XX.oem3 (.text:PIN_init)
                             00002b60                       : UARTCC26XX.oem3 (.text:UARTCC26XX_open)
                             00002b74                       : UARTCC26XX.oem3 (.text:UARTCC26XX_open)
                             0000494a   rf_multiMode_cc13x0.aem3 : RFCC26XX_multiMode.oem3 (.text:RF_open)
                             000055ba   NodeRadioTask.obj (.text:NodeRadioTask_init)
                             000055ce   NodeRadioTask.obj (.text:NodeRadioTask_init)
ti_sysbios_knl_Semaphore_Params__init__S  $Tramp$TT$L$PI$$ti_sysbios_knl_Semaphore_Params__init__S
   1001c1bd     00008720     000027b2   drivers_cc13x0.aem3 : PINCC26XX.oem3 (.text:PIN_init)
                             00002b4c                       : UARTCC26XX.oem3 (.text:UARTCC26XX_open)
                             0000493a   rf_multiMode_cc13x0.aem3 : RFCC26XX_multiMode.oem3 (.text:RF_open)
                             00008266   EasyLink.obj (.text:ti_sysbios_knl_Semaphore_Params_init)
                             0000827c   NodeRadioTask.obj (.text:ti_sysbios_knl_Semaphore_Params_init)
ti_sysbios_knl_Clock_getTicks__E  $Tramp$TT$L$PI$$ti_sysbios_knl_Clock_getTicks__E
   1001b6d5     00008728     00002590   NodeRadioTask.obj (.text:nodeRadioTaskFunction)
                             000025b2   NodeRadioTask.obj (.text:nodeRadioTaskFunction)
xdc_runtime_System_abort__E  $Tramp$TT$L$PI$$xdc_runtime_System_abort__E
   1001c745     00008730     00002538   NodeRadioTask.obj (.text:nodeRadioTaskFunction)
                             0000257e   NodeRadioTask.obj (.text:nodeRadioTaskFunction)
                             00002fb6   NodeRadioTask.obj (.text:sendDmPacket)
                             00002fc6   NodeRadioTask.obj (.text:sendDmPacket)
                             000061fc   NodeRadioTask.obj (.text:resendPacket)
                             0000620c   NodeRadioTask.obj (.text:resendPacket)
                             00007618   CC1310_LAUNCHXL.obj (.text:CC1310_LAUNCHXL_initGeneral)
ti_sysbios_knl_Swi_restore__E  $Tramp$TT$L$PI$$ti_sysbios_knl_Swi_restore__E
   1001b5dd     00008738     000020ac   drivers_cc13x0.aem3 : PowerCC26XX.oem3 (.text:Power_sleep)
                             00005da8   rf_multiMode_cc13x0.aem3 : RFCC26XX_multiMode.oem3 (.text:RF_pendCmd)
                             00005dd0                            : RFCC26XX_multiMode.oem3 (.text:RF_pendCmd)
                             00005dee                            : RFCC26XX_multiMode.oem3 (.text:RF_pendCmd)
ti_sysbios_knl_Swi_disable__E  $Tramp$TT$L$PI$$ti_sysbios_knl_Swi_disable__E
   1001c0d1     00008740     00001f1c   drivers_cc13x0.aem3 : PowerCC26XX.oem3 (.text:Power_sleep)
                             00005d8c   rf_multiMode_cc13x0.aem3 : RFCC26XX_multiMode.oem3 (.text:RF_pendCmd)
                             000078ca   release_pem3.oem3 (.text:ti_sysbios_BIOS_atExitFunc__I)
ti_sysbios_knl_Task_restore__E  $Tramp$TT$L$PI$$ti_sysbios_knl_Task_restore__E
   1001ba45     00008748     00001f16   drivers_cc13x0.aem3 : PowerCC26XX.oem3 (.text:Power_sleep)
                             000020b6                       : PowerCC26XX.oem3 (.text:Power_sleep)
                             00004a38   rom_sysbios.aem3 : rom_sysbios.obj (.text:ti_sysbios_knl_Event_pend__E)
                             00006416                    : rom_sysbios.obj (.text:ti_sysbios_knl_Event_post__E)
ti_sysbios_knl_Task_disable__E  $Tramp$TT$L$PI$$ti_sysbios_knl_Task_disable__E
   1001c0f1     00008750     00001efe   drivers_cc13x0.aem3 : PowerCC26XX.oem3 (.text:Power_sleep)
                             00004a08   rom_sysbios.aem3 : rom_sysbios.obj (.text:ti_sysbios_knl_Event_pend__E)
                             000063da                    : rom_sysbios.obj (.text:ti_sysbios_knl_Event_post__E)
                             000078ce   release_pem3.oem3 (.text:ti_sysbios_BIOS_atExitFunc__I)
ti_sysbios_knl_Semaphore_create  $Tramp$TT$L$PI$$ti_sysbios_knl_Semaphore_create
   1001b5a9     00008758     00001b06   EasyLink.obj (.text:EasyLink_init)
xdc_runtime_Error_init__E  $Tramp$TT$L$PI$$xdc_runtime_Error_init__E
   1001c83d     00008760     00001af6   EasyLink.obj (.text:EasyLink_init)
ti_sysbios_knl_Semaphore_post__E  $Tramp$TT$L$PI$$ti_sysbios_knl_Semaphore_post__E
   1001ac41     00008768     00001a70   EasyLink.obj (.text:EasyLink_init)
                             00001b24   EasyLink.obj (.text:EasyLink_init)
                             00001b3c   EasyLink.obj (.text:EasyLink_init)
                             00002d8a   EasyLink.obj (.text:rxDoneCallback)
                             000036e6   EasyLink.obj (.text:EasyLink_transmit)
                             00004c0c   EasyLink.obj (.text:EasyLink_enableRxAddrFilter)
                             00005518   rf_multiMode_cc13x0.aem3 : RFCC26XX_multiMode.oem3 (.text:fsmPowerDownState)
                             000059fe   drivers_cc13x0.aem3 : PINCC26XX.oem3 (.text:PIN_open)
                             00006828                       : PINCC26XX.oem3 (.text:PIN_add)
                             000069f8   NodeRadioTask.obj (.text:NodeRadioTask_sendAdcData)
                             00007090   rf_multiMode_cc13x0.aem3 : RFCC26XX_multiMode.oem3 (.text:syncCb)
                             00007aa4   EasyLink.obj (.text:asyncCmdCallback)
                             00007dba   NodeRadioTask.obj (.text:returnRadioOperationStatus)
                             00008520   drivers_cc13x0.aem3 : UARTCC26XX.oem3 (.text:readSemCallback)
                             00008548                       : UARTCC26XX.oem3 (.text:writeSemCallback)
ti_sysbios_knl_Semaphore_pend__E  $Tramp$TT$L$PI$$ti_sysbios_knl_Semaphore_pend__E
   1001a001     00008770     0000189e   EasyLink.obj (.text:EasyLink_init)
                             00003092   EasyLink.obj (.text:EasyLink_receiveAsync)
                             00003212   EasyLink.obj (.text:enableTestMode)
                             00003604   EasyLink.obj (.text:EasyLink_transmit)
                             0000413a   drivers_cc13x0.aem3 : UARTCC26XX.oem3 (.text:UARTCC26XX_read)
                             00004540   rf_multiMode_cc13x0.aem3 : RFCC26XX_multiMode.oem3 (.text:RF_close)
                             00004646   drivers_cc13x0.aem3 : UARTCC26XX.oem3 (.text:UARTCC26XX_write)
                             00004682                       : UARTCC26XX.oem3 (.text:UARTCC26XX_write)
                             00004b88   EasyLink.obj (.text:EasyLink_enableRxAddrFilter)
                             0000598c   drivers_cc13x0.aem3 : PINCC26XX.oem3 (.text:PIN_open)
                             00005ddc   rf_multiMode_cc13x0.aem3 : RFCC26XX_multiMode.oem3 (.text:RF_pendCmd)
                             000060d4   drivers_cc13x0.aem3 : UARTCC26XX.oem3 (.text:writeTxFifoFlush)
                             000067fc                       : PINCC26XX.oem3 (.text:PIN_add)
                             000069ca   NodeRadioTask.obj (.text:NodeRadioTask_sendAdcData)
                             000069e8   NodeRadioTask.obj (.text:NodeRadioTask_sendAdcData)
ti_sysbios_family_arm_m3_Hwi_restoreFxn__E  $Tramp$TT$L$PI$$ti_sysbios_family_arm_m3_Hwi_restoreFxn__E
   1001c215     00008778     000017d0   rf_multiMode_cc13x0.aem3 : RFCC26XX_multiMode.oem3 (.text:fsmActiveState)
                             00001836                            : RFCC26XX_multiMode.oem3 (.text:fsmActiveState)
                             0000185e                            : RFCC26XX_multiMode.oem3 (.text:fsmActiveState)
                             00002a5e   drivers_cc13x0.aem3 : UARTCC26XX.oem3 (.text:UARTCC26XX_open)
                             00002a6e                       : UARTCC26XX.oem3 (.text:UARTCC26XX_open)
                             00002af8                       : UARTCC26XX.oem3 (.text:UARTCC26XX_open)
                             000033e8   rf_multiMode_cc13x0.aem3 : RFCC26XX_multiMode.oem3 (.text:RF_postCmd)
                             00003410                            : RFCC26XX_multiMode.oem3 (.text:RF_postCmd)
                             00003478                            : RFCC26XX_multiMode.oem3 (.text:RF_postCmd)
                             00003eec                            : RFCC26XX_multiMode.oem3 (.text:radioOpDoneCb)
                             00004118   drivers_cc13x0.aem3 : UARTCC26XX.oem3 (.text:UARTCC26XX_read)
                             00004156                       : UARTCC26XX.oem3 (.text:UARTCC26XX_read)
                             0000451e   rf_multiMode_cc13x0.aem3 : RFCC26XX_multiMode.oem3 (.text:RF_close)
                             00004594                            : RFCC26XX_multiMode.oem3 (.text:RF_close)
                             000045fe   drivers_cc13x0.aem3 : UARTCC26XX.oem3 (.text:UARTCC26XX_write)
                             0000461a                       : UARTCC26XX.oem3 (.text:UARTCC26XX_write)
                             000046b8                       : UARTCC26XX.oem3 (.text:UARTCC26XX_write)
                             0000473a                       : GPIOCC26XX.oem3 (.text:GPIO_setConfig)
                             0000476a                       : GPIOCC26XX.oem3 (.text:GPIO_setConfig)
                             000048e4   rf_multiMode_cc13x0.aem3 : RFCC26XX_multiMode.oem3 (.text:RF_open)
                             000048fa                            : RFCC26XX_multiMode.oem3 (.text:RF_open)
                             00004b34   drivers_cc13x0.aem3 : PINCC26XX.oem3 (.text:PINCC26XX_setIoCfg)
                             00005114                       : PowerCC26XX.oem3 (.text:Power_releaseDependency)
                             000051da                       : PowerCC26XX.oem3 (.text:Power_setDependency)
                             00005c0e                       : UARTCC26XX.oem3 (.text:writeFinishedDoCallback)
                             00005c82                       : UARTCC26XX.oem3 (.text:UARTCC26XX_writeCancel)
                             00005c8e                       : UARTCC26XX.oem3 (.text:UARTCC26XX_writeCancel)
                             00005cd4                       : UARTCC26XX.oem3 (.text:UARTCC26XX_writeCancel)
                             00005d44   rf_multiMode_cc13x0.aem3 : RFCC26XX_multiMode.oem3 (.text:swiFxnHw)
                             00005d64                            : RFCC26XX_multiMode.oem3 (.text:swiFxnHw)
                             00005eee                            : RFCC26XX_multiMode.oem3 (.text:RF_issueRadioFreeCb)
                             00005f0a                            : RFCC26XX_multiMode.oem3 (.text:RF_issueRadioFreeCb)
                             00005f82   drivers_cc13x0.aem3 : PowerCC26XX.oem3 (.text:switchXOSCHFclockFunc)
                             000061da                       : UARTCC26XX.oem3 (.text:UARTCC26XX_close)
                             00006662                       : PowerCC26XX_calibrateRCOSC.oem3 (.text:PowerCC26XX_initiateCalibration)
                             000066d8                       : UARTCC26XX.oem3 (.text:UARTCC26XX_readCancel)
                             000066e4                       : UARTCC26XX.oem3 (.text:UARTCC26XX_readCancel)
                             000066ee                       : UARTCC26XX.oem3 (.text:UARTCC26XX_readCancel)
                             00006944                       : UARTCC26XX.oem3 (.text:UARTCC26XX_control)
                             00006df2   rf_multiMode_cc13x0.aem3 : RFCC26XX_multiMode.oem3 (.text:ratChanFree)
                             00006e9e   drivers_cc13x0.aem3 : GPIOCC26XX.oem3 (.text:GPIO_write)
                             00006ebc   rf_multiMode_cc13x0.aem3 : RFCC26XX_multiMode.oem3 (.text:RF_getCurrentTime)
                             00006ec4                            : RFCC26XX_multiMode.oem3 (.text:RF_getCurrentTime)
                             00007166   drivers_cc13x0.aem3 : PINCC26XX.oem3 (.text:PIN_setOutputEnable)
                             000071ca   rf_multiMode_cc13x0.aem3 : RFCC26XX_multiMode.oem3 (.text:RF_releasePowerConstraint)
                             000071e2                            : RFCC26XX_multiMode.oem3 (.text:RF_releasePowerConstraint)
                             000071e8                            : RFCC26XX_multiMode.oem3 (.text:RF_releasePowerConstraint)
                             00007212   drivers_cc13x0.aem3 : RingBuf.oem3 (.text:RingBuf_put)
                             0000723c                       : RingBuf.oem3 (.text:RingBuf_put)
                             000072fa                       : UART.oem3 (.text:UART_init)
                             00007378                       : RingBuf.oem3 (.text:RingBuf_get)
                             00007380                       : RingBuf.oem3 (.text:RingBuf_get)
                             000073b6                       : GPIOCC26XX.oem3 (.text:GPIO_enableInt)
                             0000751c   rf_multiMode_cc13x0.aem3 : RFCC26XX_multiMode.oem3 (.text:Q_end)
                             00007546   drivers_cc13x0.aem3 : UARTCC26XX.oem3 (.text:UARTCC26XX_swiIntFxn)
                             00007694                       : GPIOCC26XX.oem3 (.text:GPIO_toggle)
                             00007738   rf_multiMode_cc13x0.aem3 : RFCC26XX_multiMode.oem3 (.text:Q_push)
                             0000782c   drivers_cc13x0.aem3 : PowerCC26XX.oem3 (.text:Power_releaseConstraint)
                             0000785c                       : PowerCC26XX.oem3 (.text:Power_setConstraint)
                             00007d20                       : List.oem3 (.text:List_put)
                             00007d9c                       : PowerCC26XX.oem3 (.text:Power_unregisterNotify)
                             00007f20   rf_multiMode_cc13x0.aem3 : RFCC26XX_multiMode.oem3 (.text:RF_setPowerConstraint)
                             0000820e                            : RFCC26XX_multiMode.oem3 (.text:Q_pop)
ti_sysbios_family_arm_m3_Hwi_disableFxn__E  $Tramp$TT$L$PI$$ti_sysbios_family_arm_m3_Hwi_disableFxn__E
   1001c145     00008780     000017ae   rf_multiMode_cc13x0.aem3 : RFCC26XX_multiMode.oem3 (.text:fsmActiveState)
                             00001816                            : RFCC26XX_multiMode.oem3 (.text:fsmActiveState)
                             00002a54   drivers_cc13x0.aem3 : UARTCC26XX.oem3 (.text:UARTCC26XX_open)
                             00002af2                       : UARTCC26XX.oem3 (.text:UARTCC26XX_open)
                             00003348   rf_multiMode_cc13x0.aem3 : RFCC26XX_multiMode.oem3 (.text:RF_postCmd)
                             000033fc                            : RFCC26XX_multiMode.oem3 (.text:RF_postCmd)
                             00003ec8                            : RFCC26XX_multiMode.oem3 (.text:radioOpDoneCb)
                             00004100   drivers_cc13x0.aem3 : UARTCC26XX.oem3 (.text:UARTCC26XX_read)
                             00004142                       : UARTCC26XX.oem3 (.text:UARTCC26XX_read)
                             0000450a   rf_multiMode_cc13x0.aem3 : RFCC26XX_multiMode.oem3 (.text:RF_close)
                             000045e0   drivers_cc13x0.aem3 : UARTCC26XX.oem3 (.text:UARTCC26XX_write)
                             00004602                       : UARTCC26XX.oem3 (.text:UARTCC26XX_write)
                             0000465a                       : UARTCC26XX.oem3 (.text:UARTCC26XX_write)
                             000046a4                       : UARTCC26XX.oem3 (.text:UARTCC26XX_write)
                             00004712                       : GPIOCC26XX.oem3 (.text:GPIO_setConfig)
                             00004748                       : GPIOCC26XX.oem3 (.text:GPIO_setConfig)
                             000048da   rf_multiMode_cc13x0.aem3 : RFCC26XX_multiMode.oem3 (.text:RF_open)
                             00004b20   drivers_cc13x0.aem3 : PINCC26XX.oem3 (.text:PINCC26XX_setIoCfg)
                             0000506a                       : PowerCC26XX.oem3 (.text:Power_releaseDependency)
                             00005134                       : PowerCC26XX.oem3 (.text:Power_setDependency)
                             00005bf6                       : UARTCC26XX.oem3 (.text:writeFinishedDoCallback)
                             00005c72                       : UARTCC26XX.oem3 (.text:UARTCC26XX_writeCancel)
                             00005cbe                       : UARTCC26XX.oem3 (.text:UARTCC26XX_writeCancel)
                             00005cf6   rf_multiMode_cc13x0.aem3 : RFCC26XX_multiMode.oem3 (.text:swiFxnHw)
                             00005e94                            : RFCC26XX_multiMode.oem3 (.text:RF_issueRadioFreeCb)
                             00005f18   drivers_cc13x0.aem3 : PowerCC26XX.oem3 (.text:switchXOSCHFclockFunc)
                             000061d2                       : UARTCC26XX.oem3 (.text:UARTCC26XX_close)
                             0000664e                       : PowerCC26XX_calibrateRCOSC.oem3 (.text:PowerCC26XX_initiateCalibration)
                             000066c0                       : UARTCC26XX.oem3 (.text:UARTCC26XX_readCancel)
                             000066dc                       : UARTCC26XX.oem3 (.text:UARTCC26XX_readCancel)
                             0000691e                       : UARTCC26XX.oem3 (.text:UARTCC26XX_control)
                             00006dac   rf_multiMode_cc13x0.aem3 : RFCC26XX_multiMode.oem3 (.text:ratChanFree)
                             00006e64   drivers_cc13x0.aem3 : GPIOCC26XX.oem3 (.text:GPIO_write)
                             00006eae   rf_multiMode_cc13x0.aem3 : RFCC26XX_multiMode.oem3 (.text:RF_getCurrentTime)
                             00007150   drivers_cc13x0.aem3 : PINCC26XX.oem3 (.text:PIN_setOutputEnable)
                             000071c0   rf_multiMode_cc13x0.aem3 : RFCC26XX_multiMode.oem3 (.text:RF_releasePowerConstraint)
                             00007394   drivers_cc13x0.aem3 : GPIOCC26XX.oem3 (.text:GPIO_enableInt)
                             000074f4   rf_multiMode_cc13x0.aem3 : RFCC26XX_multiMode.oem3 (.text:Q_end)
                             0000752e   drivers_cc13x0.aem3 : UARTCC26XX.oem3 (.text:UARTCC26XX_swiIntFxn)
                             0000767a                       : GPIOCC26XX.oem3 (.text:GPIO_toggle)
                             0000771a   rf_multiMode_cc13x0.aem3 : RFCC26XX_multiMode.oem3 (.text:Q_push)
                             00007722                            : RFCC26XX_multiMode.oem3 (.text:Q_push)
                             0000780c   drivers_cc13x0.aem3 : PowerCC26XX.oem3 (.text:Power_releaseConstraint)
                             0000783c                       : PowerCC26XX.oem3 (.text:Power_setConstraint)
                             00007d8c                       : PowerCC26XX.oem3 (.text:Power_unregisterNotify)
                             00007f14   rf_multiMode_cc13x0.aem3 : RFCC26XX_multiMode.oem3 (.text:RF_setPowerConstraint)
                             00008202                            : RFCC26XX_multiMode.oem3 (.text:Q_pop)
                             00008568   dpl_cc13x0.aem3 : HwiP_tirtos.oem3 (.text:HwiP_disable)

[63 trampolines]
[301 trampoline calls]


GLOBAL SYMBOLS: SORTED ALPHABETICALLY BY Name 

address   name                                                                      
-------   ----                                                                      
0000bf44  ADCBuf_count                                                              
0000bf45  ADC_count                                                                 
0000bdbc  BoardGpioInitTable                                                        
00007609  CC1310_LAUNCHXL_initGeneral                                               
0000bf46  Display_count                                                             
00004b61  EasyLink_enableRxAddrFilter                                               
00001889  EasyLink_init                                                             
0000306d  EasyLink_receiveAsync                                                     
000052b9  EasyLink_setCtrl                                                          
000035e1  EasyLink_transmit                                                         
0000bee0  GPIOCC26XX_config                                                         
0000738d  GPIO_enableInt                                                            
00007be5  GPIO_hwiIntFxn                                                            
00005f99  GPIO_init                                                                 
00007989  GPIO_read                                                                 
0000763d  GPIO_setCallback                                                          
000046cd  GPIO_setConfig                                                            
00007671  GPIO_toggle                                                               
00006e59  GPIO_write                                                                
00008569  HwiP_disable                                                              
UNDEFED   HwiP_restore                                                              
0000bf47  I2C_count                                                                 
00008425  List_empty                                                                
0000856d  List_head                                                                 
00008571  List_next                                                                 
00007d05  List_put                                                                  
00007fd5  List_remove                                                               
00007b6d  NOROM_AONBatMonTemperatureGetDegC                                         
000082c5  NOROM_AONRTCCurrent64BitValueGet                                          
00008009  NOROM_AONRTCCurrentCompareValueGet                                        
00008431  NOROM_CPUcpsid                                                            
0000843d  NOROM_CPUcpsie                                                            
00007e85  NOROM_ChipInfo_GetChipFamily                                              
000077a9  NOROM_ChipInfo_GetChipType                                                
000073c9  NOROM_ChipInfo_GetHwRevision                                              
00008021  NOROM_ChipInfo_GetPackageType                                             
000079b5  NOROM_DDI32RegWrite                                                       
000079e1  NOROM_OSCClockSourceGet                                                   
000068a1  NOROM_OSCClockSourceSet                                                   
00006775  NOROM_OSCHF_AttemptToSwitchToXosc                                         
000076a5  NOROM_OSCHF_SwitchToRcOscTurnOffXosc                                      
00008039  NOROM_OSCHF_TurnOnXosc                                                    
00007405  NOROM_OSC_HPOSCRelativeFrequencyOffsetGet                                 
00008449  NOROM_OSC_HPOSCRelativeFrequencyOffsetToRFCoreFormatConvert               
00007d29  NOROM_RFCAdi3VcoLdoVoltageMode                                            
00007a0d  NOROM_RFCCPEPatchReset                                                    
00008051  NOROM_RFCCpeIntGetAndClear                                                
00007d49  NOROM_RFCDoorbellSendTo                                                   
00004c39  NOROM_RFCRTrim                                                            
00004ec1  NOROM_RFCRfTrimRead                                                       
0000834d  NOROM_RFCRfTrimSet                                                        
00007441  NOROM_RFCSynthPowerDown                                                   
000056fd  NOROM_SetupAfterColdResetWakeupFromShutDownCfg1                           
000047bd  NOROM_SetupAfterColdResetWakeupFromShutDownCfg2                           
00003991  NOROM_SetupAfterColdResetWakeupFromShutDownCfg3                           
00008069  NOROM_SetupGetTrimForAdcShModeEn                                          
00008081  NOROM_SetupGetTrimForAdcShVbufEn                                          
00006429  NOROM_SetupGetTrimForAmpcompCtrl                                          
00008099  NOROM_SetupGetTrimForAmpcompTh1                                           
00007ea1  NOROM_SetupGetTrimForAmpcompTh2                                           
0000656d  NOROM_SetupGetTrimForAnabypassValue1                                      
000080b1  NOROM_SetupGetTrimForDblrLoopFilterResetVoltage                           
00007a39  NOROM_SetupGetTrimForRadcExtCfg                                           
000080c9  NOROM_SetupGetTrimForRcOscLfIBiasTrim                                     
00007ebd  NOROM_SetupGetTrimForRcOscLfRtuneCtuneTrim                                
00007d69  NOROM_SetupGetTrimForXoscHfCtl                                            
0000835d  NOROM_SetupGetTrimForXoscHfFastStart                                      
0000836d  NOROM_SetupGetTrimForXoscHfIbiastherm                                     
000080e1  NOROM_SetupGetTrimForXoscLfRegulatorAndCmirrwrRatio                       
000077d9  NOROM_SetupSetAonRtcSubSecInc                                             
00006fa9  NOROM_SetupSetCacheModeAccordingToCcfgSetting                             
00006109  NOROM_SetupSetVddrLevel                                                   
00005655  NOROM_SetupTrimDevice                                                     
00006961  NOROM_SysCtrlAdjustRechargeAfterPowerDown                                 
00002109  NOROM_SysCtrlSetRechargeBeforePowerDown                                   
000065d5  NOROM_SysCtrl_DCDC_VoltageConditionalControl                              
000081e9  NOROM_ThisLibraryIsFor_CC13x0_HwRev20AndLater_HaltIfViolated              
000083ed  NOROM_VIMSModeGet                                                         
000055a9  NodeRadioTask_init                                                        
000069bd  NodeRadioTask_sendAdcData                                                 
00005841  NodeTask_init                                                             
00007c09  PINCC26XX_getPinCount                                                     
0000bf4c  PINCC26XX_hwAttrs                                                         
00007a65  PINCC26XX_setMux                                                          
20001c58  PIN_HandleTable                                                           
20001bc4  PIN_NumPins                                                               
000067d9  PIN_add                                                                   
00007e49  PIN_close                                                                 
000026f9  PIN_init                                                                  
00005979  PIN_open                                                                  
00008455  PIN_registerIntCb                                                         
00006cf9  PIN_remove                                                                
000076d9  PIN_setConfig                                                             
00007131  PIN_setOutputEnable                                                       
000074b9  PIN_setOutputValue                                                        
0000bf48  PWM_count                                                                 
00006a19  PowerCC26XX_RCOSC_clockFunc                                               
00001bd1  PowerCC26XX_auxISR                                                        
00006495  PowerCC26XX_calibrate                                                     
0000bf1c  PowerCC26XX_config                                                        
000028ad  PowerCC26XX_doCalibrate                                                   
0000663d  PowerCC26XX_initiateCalibration                                           
200004c0  PowerCC26XX_module                                                        
00004f95  PowerCC26XX_standbyPolicy                                                 
00008461  Power_getConstraintMask                                                   
0000846d  Power_getDependencyCount                                                  
00007e67  Power_getTransitionLatency                                                
000080f9  Power_idleFunc                                                            
0000385d  Power_init                                                                
00007b95  Power_registerNotify                                                      
00007809  Power_releaseConstraint                                                   
00005065  Power_releaseDependency                                                   
00007839  Power_setConstraint                                                       
00005131  Power_setDependency                                                       
00001edd  Power_sleep                                                               
00007d89  Power_unregisterNotify                                                    
0000bf54  RFCC26XX_hwAttrs                                                          
000082d9  RF_Params_init                                                            
000044c9  RF_close                                                                  
20000aac  RF_cmdFs                                                                  
20000ac4  RF_cmdFs_preDef                                                           
200009ac  RF_cmdPropRadioDivSetup                                                   
200009d4  RF_cmdPropRadioDivSetup_fsk                                               
200009fc  RF_cmdPropRadioDivSetup_lrm                                               
20000a24  RF_cmdPropRadioDivSetup_ook                                               
200008ec  RF_cmdPropRxAdv_preDef                                                    
20000adc  RF_cmdPropTx                                                              
20000af4  RF_cmdPropTx_preDef                                                       
20000b0c  RF_cmdRadioSetup_hsm                                                      
20000a4c  RF_cmdRxHS                                                                
20000b84  RF_cmdTxHS                                                                
00006ead  RF_getCurrentTime                                                         
000048ad  RF_open                                                                   
200008a8  RF_pCmdFs_preDef                                                          
2000088c  RF_pCmdPropRadioDivSetup_fsk                                              
20000890  RF_pCmdPropRadioDivSetup_lrm                                              
20000894  RF_pCmdPropRadioDivSetup_ook                                              
2000089c  RF_pCmdPropRadioSetup_2_4G_fsk                                            
200008b0  RF_pCmdPropRxAdv_preDef                                                   
200008ac  RF_pCmdPropTx_preDef                                                      
20000898  RF_pCmdRadioSetup_hsm                                                     
200008a4  RF_pCmdRxHS                                                               
200008a0  RF_pCmdTxHS                                                               
20000888  RF_pProp_2_4G_fsk                                                         
20000878  RF_pProp_fsk                                                              
20000884  RF_pProp_hsm                                                              
2000087c  RF_pProp_lrm                                                              
20000880  RF_pProp_ook                                                              
00005d81  RF_pendCmd                                                                
0000333d  RF_postCmd                                                                
20000b98  RF_prop                                                                   
20000ba8  RF_prop_fsk                                                               
20000bb8  RF_prop_hsm                                                               
20000bc8  RF_prop_lrm                                                               
20000bd8  RF_prop_ook                                                               
000071bd  RF_releasePowerConstraint                                                 
0000747d  RF_runCmd                                                                 
00007f11  RF_setPowerConstraint                                                     
00007245  ResetISR                                                                  
00008329  RingBuf_construct                                                         
0000734d  RingBuf_get                                                               
00007201  RingBuf_put                                                               
UNDEFED   SHT$$INIT_ARRAY$$Base                                                     
UNDEFED   SHT$$INIT_ARRAY$$Limit                                                    
0000bf49  SPI_count                                                                 
00007bbd  SafeHapiVoid                                                              
00007c2d  SceAdc_setReportInterval                                                  
0000617d  UARTCC26XX_close                                                          
00006901  UARTCC26XX_control                                                        
0000bde8  UARTCC26XX_fxnTable                                                       
000043bd  UARTCC26XX_hwiIntFxn                                                      
00008111  UARTCC26XX_init                                                           
00002a45  UARTCC26XX_open                                                           
00004079  UARTCC26XX_read                                                           
000066a5  UARTCC26XX_readCancel                                                     
0000854d  UARTCC26XX_readPolling                                                    
00007529  UARTCC26XX_swiIntFxn                                                      
000045d1  UARTCC26XX_write                                                          
00005c69  UARTCC26XX_writeCancel                                                    
00008553  UARTCC26XX_writePolling                                                   
00008129  UART_Params_init                                                          
0000bf2c  UART_config                                                               
0000bf4a  UART_count                                                                
0000be10  UART_defaultParams                                                        
000072cd  UART_init                                                                 
0000730d  UART_open                                                                 
00008509  UART_read                                                                 
00008513  UART_write                                                                
0000bf4b  Watchdog_count                                                            
00000000  __ASM__                                                                   
0000007a  __ISA__                                                                   
0000008c  __PLAT__                                                                  
20005000  __STACK_END                                                               
00000400  __STACK_SIZE                                                              
000000b3  __TARG__                                                                  
000003f0  __TI_CINIT_Base                                                           
00000450  __TI_CINIT_Limit                                                          
000003ac  __TI_Handler_Table_Base                                                   
000003b8  __TI_Handler_Table_Limit                                                  
000057a1  __TI_auto_init                                                            
0000670d  __TI_decompress_lzss                                                      
000083fb  __TI_decompress_none                                                      
ffffffff  __TI_pprof_out_hndl                                                       
ffffffff  __TI_prof_data_size                                                       
ffffffff  __TI_prof_data_start                                                      
00000040  __TI_static_base__                                                        
0000849d  __TI_zero_init                                                            
000000d8  __TRDR__                                                                  
00008171  __aeabi_lmul                                                              
00006015  __aeabi_memclr                                                            
00006015  __aeabi_memclr4                                                           
00006015  __aeabi_memclr8                                                           
000058dd  __aeabi_memcpy                                                            
000058dd  __aeabi_memcpy4                                                           
000058dd  __aeabi_memcpy8                                                           
00006017  __aeabi_memset                                                            
00006017  __aeabi_memset4                                                           
00006017  __aeabi_memset8                                                           
00002331  __aeabi_uldivmod                                                          
ffffffff  __binit__                                                                 
ffffffff  __c_args__                                                                
0001ffa8  __ccfg                                                                    
20004c00  __primary_heap_end__                                                      
2000243d  __primary_heap_start__                                                    
20004c00  __stack                                                                   
00008159  _args_main                                                                
00007245  _c_int00                                                                  
20000c08  _lock                                                                     
000082fb  _nop                                                                      
000082f3  _register_lock                                                            
000082ed  _register_unlock                                                          
20000c0c  _unlock                                                                   
ffffffff  binit                                                                     
200023a0  commissionEvent                                                           
200020b8  commissionTask                                                            
00006501  commissionTask_init                                                       
000070e5  copy_in                                                                   
20001d9c  count                                                                     
2000243c  driverlib_release_0_47555                                                 
000083bd  fastReportTimeoutCallback                                                 
200022d8  fastReportTimeoutClock                                                    
00007561  gpioButtonFxn1                                                            
20000c10  gpioCallbackFunctions                                                     
20000be8  gpioPinConfigs                                                            
0000bd7c  inPinTypes                                                                
00007fef  main                                                                      
20000c80  main_func_sp                                                              
000058dd  memcpy                                                                    
0000601d  memset                                                                    
200023b4  nodeEvent                                                                 
20002108  nodeRadioTask                                                             
20002158  nodeTask                                                                  
0000bd88  outPinStrengths                                                           
0000bd94  outPinTypes                                                               
20000740  pOverrides_fsk                                                            
200005d0  pOverrides_hsm                                                            
20000630  pOverrides_lrm                                                            
2000068c  pOverrides_ook                                                            
200022fc  radioAccessSem                                                            
200023c8  radioOperationEvent                                                       
20002318  radioResultSem                                                            
0000bca8  resourceDB                                                                
00006349  scifGetTaskStruct                                                         
20000b3c  shapeovr                                                                  
200001a4  ti_sysbios_BIOS_Module__state__V                                          
1001bc25  ti_sysbios_BIOS_RtsGateProxy_Handle__label__S                             
UNDEFED   ti_sysbios_BIOS_RtsGateProxy_Handle__label__S__mangled__                  
1001bab5  ti_sysbios_BIOS_RtsGateProxy_Object__delete__S                            
UNDEFED   ti_sysbios_BIOS_RtsGateProxy_Object__delete__S__mangled__                 
1001c175  ti_sysbios_BIOS_RtsGateProxy_Params__init__S                              
UNDEFED   ti_sysbios_BIOS_RtsGateProxy_Params__init__S__mangled__                   
1001c245  ti_sysbios_BIOS_RtsGateProxy_enter__E                                     
1001c249  ti_sysbios_BIOS_RtsGateProxy_leave__E                                     
1001c271  ti_sysbios_BIOS_RtsGateProxy_query__E                                     
UNDEFED   ti_sysbios_BIOS_RtsGateProxy_query__E__mangled__                          
000078c9  ti_sysbios_BIOS_atExitFunc__I                                             
00008215  ti_sysbios_BIOS_exitFunc__I                                               
1001c031  ti_sysbios_BIOS_exit__E                                                   
1001bff5  ti_sysbios_BIOS_getCpuFreq__E                                             
00008417  ti_sysbios_BIOS_linkedWithIncorrectBootLibrary__E                         
00008585  ti_sysbios_BIOS_nullFunc__I                                               
00007c99  ti_sysbios_BIOS_registerRTSLock__I                                        
00007cbd  ti_sysbios_BIOS_removeRTSLock__I                                          
00007dc9  ti_sysbios_BIOS_rtsLock__I                                                
000081a1  ti_sysbios_BIOS_rtsUnlock__I                                              
1001c041  ti_sysbios_BIOS_setThreadType__E                                          
000078f9  ti_sysbios_BIOS_startFunc__I                                              
1001c051  ti_sysbios_BIOS_start__E                                                  
00005655  ti_sysbios_family_arm_cc26xx_Boot_trimDevice                              
00001406  ti_sysbios_family_arm_cc26xx_Timer_Module__id__C                          
1001bb45  ti_sysbios_family_arm_cc26xx_Timer_Module__startupDone__S                 
200001e4  ti_sysbios_family_arm_cc26xx_Timer_Module__state__V                       
1001ba6d  ti_sysbios_family_arm_cc26xx_Timer_Module_startup__E                      
20000830  ti_sysbios_family_arm_cc26xx_Timer_Object__table__V                       
00007de9  ti_sysbios_family_arm_cc26xx_Timer_dynamicStub__E                         
0000857d  ti_sysbios_family_arm_cc26xx_Timer_getCount64__E                          
00007929  ti_sysbios_family_arm_cc26xx_Timer_getCurrentTick__E                      
1001c24d  ti_sysbios_family_arm_cc26xx_Timer_getExpiredTicks__E                     
00007ce1  ti_sysbios_family_arm_cc26xx_Timer_getMaxTicks__E                         
1001c251  ti_sysbios_family_arm_cc26xx_Timer_getPeriod__E                           
00007741  ti_sysbios_family_arm_cc26xx_Timer_initDevice__I                          
1001a465  ti_sysbios_family_arm_cc26xx_Timer_periodicStub__E                        
1001b765  ti_sysbios_family_arm_cc26xx_Timer_postInit__I                            
00007775  ti_sysbios_family_arm_cc26xx_Timer_setNextTick__E                         
1001c255  ti_sysbios_family_arm_cc26xx_Timer_setPeriod__E                           
00007959  ti_sysbios_family_arm_cc26xx_Timer_setThreshold__I                        
00006265  ti_sysbios_family_arm_cc26xx_Timer_start__E                               
00001384  ti_sysbios_family_arm_cc26xx_Timer_startupNeeded__C                       
1001b791  ti_sysbios_family_arm_cc26xx_Timer_startup__E                             
200001ec  ti_sysbios_family_arm_cc26xx_TimestampProvider_Module__state__V           
1001bb65  ti_sysbios_family_arm_cc26xx_TimestampProvider_Module_startup__E          
00008409  ti_sysbios_family_arm_cc26xx_TimestampProvider_get32__E                   
1001b9cd  ti_sysbios_family_arm_cc26xx_TimestampProvider_get64__E                   
1001c12b  ti_sysbios_family_arm_cc26xx_TimestampProvider_getFreq__E                 
00001408  ti_sysbios_family_arm_cc26xx_TimestampProvider_useClockTimer__C           
00001388  ti_sysbios_family_arm_m3_Hwi_E_alreadyDefined__C                          
0000138c  ti_sysbios_family_arm_m3_Hwi_E_hwiLimitExceeded__C                        
1001aed1  ti_sysbios_family_arm_m3_Hwi_Instance_finalize__E                         
1001a3c5  ti_sysbios_family_arm_m3_Hwi_Instance_init__E                             
20000c06  ti_sysbios_family_arm_m3_Hwi_Module_State_0_excActive__A                  
20000c84  ti_sysbios_family_arm_m3_Hwi_Module_State_0_excContext__A                 
20000c88  ti_sysbios_family_arm_m3_Hwi_Module_State_0_excStack__A                   
0000140a  ti_sysbios_family_arm_m3_Hwi_Module__id__C                                
20000c18  ti_sysbios_family_arm_m3_Hwi_Module__root__V                              
1001bb85  ti_sysbios_family_arm_m3_Hwi_Module__startupDone__S                       
20000144  ti_sysbios_family_arm_m3_Hwi_Module__state__V                             
1001b1c1  ti_sysbios_family_arm_m3_Hwi_Module_startup__E                            
00001390  ti_sysbios_family_arm_m3_Hwi_NUM_INTERRUPTS__C                            
000011d0  ti_sysbios_family_arm_m3_Hwi_Object__DESC__C                              
00001070  ti_sysbios_family_arm_m3_Hwi_Object__PARAMS__C                            
00001394  ti_sysbios_family_arm_m3_Hwi_Object__count__C                             
1001aab1  ti_sysbios_family_arm_m3_Hwi_Object__create__S                            
1001bba5  ti_sysbios_family_arm_m3_Hwi_Object__delete__S                            
1001be65  ti_sysbios_family_arm_m3_Hwi_Object__destruct__S                          
1001b7bd  ti_sysbios_family_arm_m3_Hwi_Object__get__S                               
00001398  ti_sysbios_family_arm_m3_Hwi_Object__table__C                             
20000b54  ti_sysbios_family_arm_m3_Hwi_Object__table__V                             
1001c139  ti_sysbios_family_arm_m3_Hwi_Params__init__S                              
0000139c  ti_sysbios_family_arm_m3_Hwi_ccr__C                                       
1001af29  ti_sysbios_family_arm_m3_Hwi_construct                                    
1001ab15  ti_sysbios_family_arm_m3_Hwi_create                                       
1001c259  ti_sysbios_family_arm_m3_Hwi_delete                                       
1001c25d  ti_sysbios_family_arm_m3_Hwi_destruct                                     
1001c145  ti_sysbios_family_arm_m3_Hwi_disableFxn__E                                
1001b251  ti_sysbios_family_arm_m3_Hwi_disableInterrupt__E                          
1001aa49  ti_sysbios_family_arm_m3_Hwi_dispatchC__I                                 
20001cd4  ti_sysbios_family_arm_m3_Hwi_dispatchTable                                
1001c899  ti_sysbios_family_arm_m3_Hwi_dispatch__I                                  
1001c1f7  ti_sysbios_family_arm_m3_Hwi_doSwiRestore__I                              
1001c20f  ti_sysbios_family_arm_m3_Hwi_doTaskRestore__I                             
1001c151  ti_sysbios_family_arm_m3_Hwi_enableFxn__E                                 
1001b295  ti_sysbios_family_arm_m3_Hwi_enableInterrupt__E                           
1001c9fd  ti_sysbios_family_arm_m3_Hwi_excHandlerAsm__I                             
000013a0  ti_sysbios_family_arm_m3_Hwi_excHandlerFunc__C                            
1001bbc5  ti_sysbios_family_arm_m3_Hwi_excHandler__I                                
1001b461  ti_sysbios_family_arm_m3_Hwi_getStackInfo__E                              
1001a695  ti_sysbios_family_arm_m3_Hwi_initNVIC__E                                  
1001c9b5  ti_sysbios_family_arm_m3_Hwi_initStacks__E                                
000013a4  ti_sysbios_family_arm_m3_Hwi_nullIsrFunc__C                               
000013a8  ti_sysbios_family_arm_m3_Hwi_numSparseInterrupts__C                       
e000e000  ti_sysbios_family_arm_m3_Hwi_nvic                                         
1001ca3b  ti_sysbios_family_arm_m3_Hwi_pendSV__I                                    
1001c061  ti_sysbios_family_arm_m3_Hwi_plug__E                                      
1001a315  ti_sysbios_family_arm_m3_Hwi_postInit__I                                  
000083cd  ti_sysbios_family_arm_m3_Hwi_post__E                                      
000013ac  ti_sysbios_family_arm_m3_Hwi_priGroup__C                                  
20000000  ti_sysbios_family_arm_m3_Hwi_ramVectors                                   
00000000  ti_sysbios_family_arm_m3_Hwi_resetVectors                                 
1001c215  ti_sysbios_family_arm_m3_Hwi_restoreFxn__E                                
1001ca53  ti_sysbios_family_arm_m3_Hwi_return                                       
0000855f  ti_sysbios_family_arm_m3_Hwi_setFunc__E                                   
1001be81  ti_sysbios_family_arm_m3_Hwi_setPriority__E                               
1001c1ff  ti_sysbios_family_arm_m3_Hwi_startup__E                                   
1001c009  ti_sysbios_family_arm_m3_Hwi_switchFromBootStack__E                       
1001c261  ti_sysbios_family_arm_m3_TaskSupport_Module__startupDone__S               
1001c969  ti_sysbios_family_arm_m3_TaskSupport_buildTaskStack                       
1001c15d  ti_sysbios_family_arm_m3_TaskSupport_getStackAlignment__E                 
1001ca55  ti_sysbios_family_arm_m3_TaskSupport_glue                                 
000013b0  ti_sysbios_family_arm_m3_TaskSupport_stackAlignment__C                    
1001b499  ti_sysbios_family_arm_m3_TaskSupport_start__E                             
1001ca65  ti_sysbios_family_arm_m3_TaskSupport_swap__E                              
1001ca1d  ti_sysbios_family_xxx_Hwi_switchAndRunFunc                                
1001bbe5  ti_sysbios_gates_GateHwi_Handle__label__S                                 
1001b45f  ti_sysbios_gates_GateHwi_Instance_init__E                                 
0000111c  ti_sysbios_gates_GateHwi_Module__FXNS__C                                  
0000140c  ti_sysbios_gates_GateHwi_Module__id__C                                    
20000c20  ti_sysbios_gates_GateHwi_Module__root__V                                  
000011f0  ti_sysbios_gates_GateHwi_Object__DESC__C                                  
00001330  ti_sysbios_gates_GateHwi_Object__PARAMS__C                                
1001ba91  ti_sysbios_gates_GateHwi_Object__create__S                                
1001bc05  ti_sysbios_gates_GateHwi_Object__delete__S                                
1001c169  ti_sysbios_gates_GateHwi_enter__E                                         
1001c21b  ti_sysbios_gates_GateHwi_leave__E                                         
1001c265  ti_sysbios_gates_GateHwi_query__E                                         
1001bc25  ti_sysbios_gates_GateMutex_Handle__label__S                               
000014d0  ti_sysbios_gates_GateMutex_Instance_State_sem__O                          
1001c071  ti_sysbios_gates_GateMutex_Instance_finalize__E                           
1001be9d  ti_sysbios_gates_GateMutex_Instance_init__E                               
00001140  ti_sysbios_gates_GateMutex_Module__FXNS__C                                
0000140e  ti_sysbios_gates_GateMutex_Module__id__C                                  
20000c28  ti_sysbios_gates_GateMutex_Module__root__V                                
00001210  ti_sysbios_gates_GateMutex_Object__DESC__C                                
00001348  ti_sysbios_gates_GateMutex_Object__PARAMS__C                              
1001b645  ti_sysbios_gates_GateMutex_Object__create__S                              
1001bab5  ti_sysbios_gates_GateMutex_Object__delete__S                              
1001bc45  ti_sysbios_gates_GateMutex_Object__destruct__S                            
200008b4  ti_sysbios_gates_GateMutex_Object__table__V                               
1001c175  ti_sysbios_gates_GateMutex_Params__init__S                                
1001b7e9  ti_sysbios_gates_GateMutex_construct                                      
1001b675  ti_sysbios_gates_GateMutex_create                                         
1001c269  ti_sysbios_gates_GateMutex_delete                                         
1001c26d  ti_sysbios_gates_GateMutex_destruct                                       
1001b6a5  ti_sysbios_gates_GateMutex_enter__E                                       
1001bf99  ti_sysbios_gates_GateMutex_leave__E                                       
1001c271  ti_sysbios_gates_GateMutex_query__E                                       
1001c275  ti_sysbios_hal_Hwi_HwiProxy_Module__startupDone__S                        
UNDEFED   ti_sysbios_hal_Hwi_HwiProxy_Module__startupDone__S__mangled__             
1001c081  ti_sysbios_hal_Hwi_HwiProxy_Object__create__S                             
1001bba5  ti_sysbios_hal_Hwi_HwiProxy_Object__delete__S                             
UNDEFED   ti_sysbios_hal_Hwi_HwiProxy_Object__delete__S__mangled__                  
1001c139  ti_sysbios_hal_Hwi_HwiProxy_Params__init__S                               
UNDEFED   ti_sysbios_hal_Hwi_HwiProxy_Params__init__S__mangled__                    
1001be45  ti_sysbios_hal_Hwi_HwiProxy_create                                        
1001c279  ti_sysbios_hal_Hwi_HwiProxy_delete                                        
1001c27d  ti_sysbios_hal_Hwi_HwiProxy_disableInterrupt__E                           
UNDEFED   ti_sysbios_hal_Hwi_HwiProxy_disableInterrupt__E__mangled__                
1001c281  ti_sysbios_hal_Hwi_HwiProxy_enableInterrupt__E                            
UNDEFED   ti_sysbios_hal_Hwi_HwiProxy_enableInterrupt__E__mangled__                 
1001c285  ti_sysbios_hal_Hwi_HwiProxy_getStackInfo__E                               
UNDEFED   ti_sysbios_hal_Hwi_HwiProxy_getStackInfo__E__mangled__                    
000083cd  ti_sysbios_hal_Hwi_HwiProxy_post__E                                       
1001c289  ti_sysbios_hal_Hwi_HwiProxy_startup__E                                    
UNDEFED   ti_sysbios_hal_Hwi_HwiProxy_startup__E__mangled__                         
1001c28d  ti_sysbios_hal_Hwi_HwiProxy_switchFromBootStack__E                        
UNDEFED   ti_sysbios_hal_Hwi_HwiProxy_switchFromBootStack__E__mangled__             
1001c1ed  ti_sysbios_hal_Hwi_Instance_finalize__E                                   
1001b9f5  ti_sysbios_hal_Hwi_Instance_init__E                                       
20000c30  ti_sysbios_hal_Hwi_Module__root__V                                        
1001c01d  ti_sysbios_hal_Hwi_Module_startup__E                                      
00001230  ti_sysbios_hal_Hwi_Object__DESC__C                                        
000010a0  ti_sysbios_hal_Hwi_Object__PARAMS__C                                      
1001bc65  ti_sysbios_hal_Hwi_Object__delete__S                                      
1001ab79  ti_sysbios_hal_Hwi_create                                                 
1001c291  ti_sysbios_hal_Hwi_delete                                                 
1001c27d  ti_sysbios_hal_Hwi_disableInterrupt__E                                    
UNDEFED   ti_sysbios_hal_Hwi_disableInterrupt__E                                    
1001c281  ti_sysbios_hal_Hwi_enableInterrupt__E                                     
UNDEFED   ti_sysbios_hal_Hwi_enableInterrupt__E                                     
1001c285  ti_sysbios_hal_Hwi_getStackInfo__E                                        
UNDEFED   ti_sysbios_hal_Hwi_getStackInfo__E                                        
1001b815  ti_sysbios_hal_Hwi_initStack                                              
000083cd  ti_sysbios_hal_Hwi_post__E                                                
1001c289  ti_sysbios_hal_Hwi_startup__E                                             
UNDEFED   ti_sysbios_hal_Hwi_startup__E                                             
1001c295  ti_sysbios_hal_Hwi_switchFromBootStack__E                                 
UNDEFED   ti_sysbios_hal_Hwi_switchFromBootStack__E                                 
000013b4  ti_sysbios_heaps_HeapMem_E_memory__C                                      
1001bc85  ti_sysbios_heaps_HeapMem_Handle__label__S                                 
1001b4d1  ti_sysbios_heaps_HeapMem_Instance_init__E                                 
1001bc25  ti_sysbios_heaps_HeapMem_Module_GateProxy_Handle__label__S                
UNDEFED   ti_sysbios_heaps_HeapMem_Module_GateProxy_Handle__label__S__mangled__     
1001bab5  ti_sysbios_heaps_HeapMem_Module_GateProxy_Object__delete__S               
UNDEFED   ti_sysbios_heaps_HeapMem_Module_GateProxy_Object__delete__S__mangled__    
1001c175  ti_sysbios_heaps_HeapMem_Module_GateProxy_Params__init__S                 
UNDEFED   ti_sysbios_heaps_HeapMem_Module_GateProxy_Params__init__S__mangled__      
1001c299  ti_sysbios_heaps_HeapMem_Module_GateProxy_enter__E                        
1001c29d  ti_sysbios_heaps_HeapMem_Module_GateProxy_leave__E                        
1001c271  ti_sysbios_heaps_HeapMem_Module_GateProxy_query__E                        
UNDEFED   ti_sysbios_heaps_HeapMem_Module_GateProxy_query__E__mangled__             
000010cc  ti_sysbios_heaps_HeapMem_Module__FXNS__C                                  
000013b8  ti_sysbios_heaps_HeapMem_Module__gateObj__C                               
00001410  ti_sysbios_heaps_HeapMem_Module__id__C                                    
20000c38  ti_sysbios_heaps_HeapMem_Module__root__V                                  
00001250  ti_sysbios_heaps_HeapMem_Object__DESC__C                                  
00001164  ti_sysbios_heaps_HeapMem_Object__PARAMS__C                                
000013bc  ti_sysbios_heaps_HeapMem_Object__count__C                                 
1001b841  ti_sysbios_heaps_HeapMem_Object__create__S                                
1001bca5  ti_sysbios_heaps_HeapMem_Object__delete__S                                
1001b86d  ti_sysbios_heaps_HeapMem_Object__get__S                                   
000013c0  ti_sysbios_heaps_HeapMem_Object__table__C                                 
20000b6c  ti_sysbios_heaps_HeapMem_Object__table__V                                 
1001a195  ti_sysbios_heaps_HeapMem_alloc__E                                         
1001a791  ti_sysbios_heaps_HeapMem_free__E                                          
1001b209  ti_sysbios_heaps_HeapMem_getStats__E                                      
00006c41  ti_sysbios_heaps_HeapMem_initPrimary__I                                   
1001b541  ti_sysbios_heaps_HeapMem_init__I                                          
1001c2a1  ti_sysbios_heaps_HeapMem_isBlocking__E                                    
0000bf58  ti_sysbios_heaps_HeapMem_primaryHeapBaseAddr__C                           
0000bf5c  ti_sysbios_heaps_HeapMem_primaryHeapEndAddr__C                            
000013c4  ti_sysbios_heaps_HeapMem_reqAlign__C                                      
1001c101  ti_sysbios_heaps_HeapMem_restore__E                                       
1001bfc9  ti_sysbios_knl_Clock_Instance_finalize__E                                 
1001b509  ti_sysbios_knl_Clock_Instance_init__E                                     
000014d4  ti_sysbios_knl_Clock_Module_State_clockQ__O                               
20000c40  ti_sysbios_knl_Clock_Module__root__V                                      
20000178  ti_sysbios_knl_Clock_Module__state__V                                     
1001bcc5  ti_sysbios_knl_Clock_Module_startup__E                                    
00001270  ti_sysbios_knl_Clock_Object__DESC__C                                      
00001188  ti_sysbios_knl_Clock_Object__PARAMS__C                                    
1001bad9  ti_sysbios_knl_Clock_Object__delete__S                                    
1001bce5  ti_sysbios_knl_Clock_Object__destruct__S                                  
20000a70  ti_sysbios_knl_Clock_Object__table__V                                     
1001c181  ti_sysbios_knl_Clock_Params__init__S                                      
1001c2a5  ti_sysbios_knl_Clock_TimerProxy_Module__startupDone__S                    
UNDEFED   ti_sysbios_knl_Clock_TimerProxy_Module__startupDone__S__mangled__         
1001c091  ti_sysbios_knl_Clock_TimerProxy_getCurrentTick__E                         
1001c2a9  ti_sysbios_knl_Clock_TimerProxy_getExpiredTicks__E                        
1001c0a1  ti_sysbios_knl_Clock_TimerProxy_getMaxTicks__E                            
1001c2ad  ti_sysbios_knl_Clock_TimerProxy_getPeriod__E                              
1001c0b1  ti_sysbios_knl_Clock_TimerProxy_setNextTick__E                            
1001b791  ti_sysbios_knl_Clock_TimerProxy_startup__E                                
UNDEFED   ti_sysbios_knl_Clock_TimerProxy_startup__E__mangled__                     
1001ba1d  ti_sysbios_knl_Clock_addI__E                                              
1001b575  ti_sysbios_knl_Clock_construct                                            
1001b3e9  ti_sysbios_knl_Clock_create                                               
1001c2b1  ti_sysbios_knl_Clock_delete                                               
1001c2b5  ti_sysbios_knl_Clock_destruct                                             
00008301  ti_sysbios_knl_Clock_doTick__I                                            
00007ae9  ti_sysbios_knl_Clock_getTicksUntilInterrupt__E                            
1001b6d5  ti_sysbios_knl_Clock_getTicks__E                                          
1001c18d  ti_sysbios_knl_Clock_getTimerHandle__E                                    
00008581  ti_sysbios_knl_Clock_isActive__E                                          
1001be63  ti_sysbios_knl_Clock_logTick__E                                           
1001c2b9  ti_sysbios_knl_Clock_removeI__E                                           
1001beb9  ti_sysbios_knl_Clock_scheduleNextTick__E                                  
000013c8  ti_sysbios_knl_Clock_serviceMargin__C                                     
1001c2bd  ti_sysbios_knl_Clock_setTimeout__E                                        
1001a715  ti_sysbios_knl_Clock_startI__E                                            
1001bfdf  ti_sysbios_knl_Clock_start__E                                             
00007e09  ti_sysbios_knl_Clock_stop__E                                              
00001414  ti_sysbios_knl_Clock_tickMode__C                                          
0000bf60  ti_sysbios_knl_Clock_tickPeriod__C                                        
0000bf64  ti_sysbios_knl_Clock_triggerClock__C                                      
00008587  ti_sysbios_knl_Clock_triggerFunc__I                                       
1001a809  ti_sysbios_knl_Clock_walkQueueDynamic__E                                  
00005aa9  ti_sysbios_knl_Clock_workFuncDynamic__E                                   
1001a881  ti_sysbios_knl_Clock_workFunc__E                                          
0000bf68  ti_sysbios_knl_Event_Instance_State_pendQ__O                              
00008315  ti_sysbios_knl_Event_Instance_init__E                                     
20000c48  ti_sysbios_knl_Event_Module__root__V                                      
0000be58  ti_sysbios_knl_Event_Object__DESC__C                                      
0000beb0  ti_sysbios_knl_Event_Object__PARAMS__C                                    
000084b5  ti_sysbios_knl_Event_Params__init__S                                      
00007e29  ti_sysbios_knl_Event_checkEvents__I                                       
00007b15  ti_sysbios_knl_Event_construct                                            
00007b41  ti_sysbios_knl_Event_pendTimeout__I                                       
0000499d  ti_sysbios_knl_Event_pend__E                                              
000063b9  ti_sysbios_knl_Event_post__E                                              
0000bf6c  ti_sysbios_knl_Idle_funcList__A                                           
00001378  ti_sysbios_knl_Idle_funcList__C                                           
1001c207  ti_sysbios_knl_Idle_loop__E                                               
1001bd05  ti_sysbios_knl_Idle_run__E                                                
000014d8  ti_sysbios_knl_Mailbox_Instance_State_dataQue__O                          
000014dc  ti_sysbios_knl_Mailbox_Instance_State_dataSem__O                          
000014e0  ti_sysbios_knl_Mailbox_Instance_State_freeQue__O                          
000014e4  ti_sysbios_knl_Mailbox_Instance_State_freeSem__O                          
1001a8f9  ti_sysbios_knl_Mailbox_Instance_finalize__E                               
1001a0cd  ti_sysbios_knl_Mailbox_Instance_init__E                                   
20000c50  ti_sysbios_knl_Mailbox_Module__root__V                                    
1001b2d9  ti_sysbios_knl_Mailbox_Module_startup__E                                  
00001290  ti_sysbios_knl_Mailbox_Object__DESC__C                                    
0000103c  ti_sysbios_knl_Mailbox_Object__PARAMS__C                                  
000013cc  ti_sysbios_knl_Mailbox_Object__count__C                                   
1001bd25  ti_sysbios_knl_Mailbox_Object__delete__S                                  
1001bed5  ti_sysbios_knl_Mailbox_Object__destruct__S                                
1001b899  ti_sysbios_knl_Mailbox_Object__get__S                                     
000013d0  ti_sysbios_knl_Mailbox_Object__table__C                                   
1001c199  ti_sysbios_knl_Mailbox_Params__init__S                                    
1001af81  ti_sysbios_knl_Mailbox_construct                                          
1001abdd  ti_sysbios_knl_Mailbox_create                                             
1001c2c1  ti_sysbios_knl_Mailbox_delete                                             
1001c2c5  ti_sysbios_knl_Mailbox_destruct                                           
000013d4  ti_sysbios_knl_Mailbox_maxTypeAlign__C                                    
1001a969  ti_sysbios_knl_Mailbox_pend__E                                            
1001b8c5  ti_sysbios_knl_Mailbox_postInit__I                                        
1001a58d  ti_sysbios_knl_Mailbox_post__E                                            
1001c227  ti_sysbios_knl_Queue_Instance_init__E                                     
20000c58  ti_sysbios_knl_Queue_Module__root__V                                      
000012b0  ti_sysbios_knl_Queue_Object__DESC__C                                      
00001360  ti_sysbios_knl_Queue_Object__PARAMS__C                                    
000013d8  ti_sysbios_knl_Queue_Object__count__C                                     
1001bd45  ti_sysbios_knl_Queue_Object__delete__S                                    
1001bef1  ti_sysbios_knl_Queue_Object__destruct__S                                  
1001bd65  ti_sysbios_knl_Queue_Object__get__S                                       
000013dc  ti_sysbios_knl_Queue_Object__table__C                                     
1001b8f1  ti_sysbios_knl_Queue_construct                                            
1001b91d  ti_sysbios_knl_Queue_create                                               
1001c2c9  ti_sysbios_knl_Queue_delete                                               
1001c1a5  ti_sysbios_knl_Queue_dequeue__E                                           
1001c2cd  ti_sysbios_knl_Queue_destruct                                             
1001c22d  ti_sysbios_knl_Queue_elemClear__E                                         
1001c10f  ti_sysbios_knl_Queue_empty__E                                             
1001c1b1  ti_sysbios_knl_Queue_enqueue__E                                           
1001bf0d  ti_sysbios_knl_Queue_get__E                                               
1001c2d1  ti_sysbios_knl_Queue_head__E                                              
1001c2d5  ti_sysbios_knl_Queue_next__E                                              
1001bf29  ti_sysbios_knl_Queue_put__E                                               
1001c11d  ti_sysbios_knl_Queue_remove__E                                            
000014e8  ti_sysbios_knl_Semaphore_Instance_State_pendQ__O                          
1001c0c1  ti_sysbios_knl_Semaphore_Instance_finalize__E                             
1001bafd  ti_sysbios_knl_Semaphore_Instance_init__E                                 
20000c60  ti_sysbios_knl_Semaphore_Module__root__V                                  
000012d0  ti_sysbios_knl_Semaphore_Object__DESC__C                                  
000011ac  ti_sysbios_knl_Semaphore_Object__PARAMS__C                                
1001bb21  ti_sysbios_knl_Semaphore_Object__delete__S                                
1001bd85  ti_sysbios_knl_Semaphore_Object__destruct__S                              
1001c1bd  ti_sysbios_knl_Semaphore_Params__init__S                                  
1001b705  ti_sysbios_knl_Semaphore_construct                                        
1001b5a9  ti_sysbios_knl_Semaphore_create                                           
1001c2d9  ti_sysbios_knl_Semaphore_delete                                           
1001c2dd  ti_sysbios_knl_Semaphore_destruct                                         
1001b949  ti_sysbios_knl_Semaphore_pendTimeout__I                                   
1001a001  ti_sysbios_knl_Semaphore_pend__E                                          
1001ac41  ti_sysbios_knl_Semaphore_post__E                                          
1001bf97  ti_sysbios_knl_Swi_Instance_finalize__E                                   
1001aca5  ti_sysbios_knl_Swi_Instance_init__E                                       
2000091c  ti_sysbios_knl_Swi_Module_State_0_readyQ__A                               
20000c68  ti_sysbios_knl_Swi_Module__root__V                                        
200001c8  ti_sysbios_knl_Swi_Module__state__V                                       
1001c233  ti_sysbios_knl_Swi_Module_startup__E                                      
000012f0  ti_sysbios_knl_Swi_Object__DESC__C                                        
000010f4  ti_sysbios_knl_Swi_Object__PARAMS__C                                      
000013e0  ti_sysbios_knl_Swi_Object__count__C                                       
1001bda5  ti_sysbios_knl_Swi_Object__delete__S                                      
1001bf45  ti_sysbios_knl_Swi_Object__destruct__S                                    
1001b975  ti_sysbios_knl_Swi_Object__get__S                                         
000013e4  ti_sysbios_knl_Swi_Object__table__C                                       
2000094c  ti_sysbios_knl_Swi_Object__table__V                                       
1001c1c9  ti_sysbios_knl_Swi_Params__init__S                                        
1001b085  ti_sysbios_knl_Swi_construct                                              
1001ad05  ti_sysbios_knl_Swi_create                                                 
1001c2e1  ti_sysbios_knl_Swi_delete                                                 
1001c2e5  ti_sysbios_knl_Swi_destruct                                               
1001c0d1  ti_sysbios_knl_Swi_disable__E                                             
1001c0e1  ti_sysbios_knl_Swi_enabled__E                                             
000084e5  ti_sysbios_knl_Swi_getTrigger__E                                          
000013e8  ti_sysbios_knl_Swi_numPriorities__C                                       
000081b9  ti_sysbios_knl_Swi_or__E                                                  
1001c2e9  ti_sysbios_knl_Swi_postInit__I                                            
1001b31d  ti_sysbios_knl_Swi_post__E                                                
1001ad61  ti_sysbios_knl_Swi_restoreHwi__E                                          
1001b5dd  ti_sysbios_knl_Swi_restore__E                                             
1001b0d5  ti_sysbios_knl_Swi_runLoop__I                                             
1001afd9  ti_sysbios_knl_Swi_run__I                                                 
1001b031  ti_sysbios_knl_Swi_schedule__I                                            
1001c239  ti_sysbios_knl_Swi_startup__E                                             
20001898  ti_sysbios_knl_Task_Instance_State_0_stack__A                             
1001a4f9  ti_sysbios_knl_Task_Instance_finalize__E                                  
1001a259  ti_sysbios_knl_Task_Instance_init__E                                      
20000c8c  ti_sysbios_knl_Task_Module_State_0_idleTask__A                            
2000097c  ti_sysbios_knl_Task_Module_State_0_readyQ__A                              
000014ec  ti_sysbios_knl_Task_Module_State_inactiveQ__O                             
20000c70  ti_sysbios_knl_Task_Module__root__V                                       
20000100  ti_sysbios_knl_Task_Module__state__V                                      
1001adbd  ti_sysbios_knl_Task_Module_startup__E                                     
00001310  ti_sysbios_knl_Task_Object__DESC__C                                       
00001000  ti_sysbios_knl_Task_Object__PARAMS__C                                     
000013ec  ti_sysbios_knl_Task_Object__count__C                                      
1001bdc5  ti_sysbios_knl_Task_Object__delete__S                                     
1001bf61  ti_sysbios_knl_Task_Object__destruct__S                                   
1001bde5  ti_sysbios_knl_Task_Object__get__S                                        
000013f0  ti_sysbios_knl_Task_Object__table__C                                      
200007e4  ti_sysbios_knl_Task_Object__table__V                                      
1001c1d5  ti_sysbios_knl_Task_Params__init__S                                       
1001c2ed  ti_sysbios_knl_Task_SupportProxy_Module__startupDone__S                   
UNDEFED   ti_sysbios_knl_Task_SupportProxy_Module__startupDone__S__mangled__        
1001c2f1  ti_sysbios_knl_Task_SupportProxy_getStackAlignment__E                     
UNDEFED   ti_sysbios_knl_Task_SupportProxy_getStackAlignment__E__mangled__          
1001c2f5  ti_sysbios_knl_Task_SupportProxy_start__E                                 
UNDEFED   ti_sysbios_knl_Task_SupportProxy_start__E__mangled__                      
1001c2f9  ti_sysbios_knl_Task_SupportProxy_swap__E                                  
UNDEFED   ti_sysbios_knl_Task_SupportProxy_swap__E__mangled__                       
000013f4  ti_sysbios_knl_Task_allBlockedFunc__C                                     
1001b361  ti_sysbios_knl_Task_allBlockedFunction__I                                 
1001b611  ti_sysbios_knl_Task_blockI__E                                             
1001b125  ti_sysbios_knl_Task_construct                                             
1001ae19  ti_sysbios_knl_Task_create                                                
000013f8  ti_sysbios_knl_Task_defaultStackHeap__C                                   
000013fc  ti_sysbios_knl_Task_defaultStackSize__C                                   
1001c2fd  ti_sysbios_knl_Task_delete                                                
1001c301  ti_sysbios_knl_Task_destruct                                              
1001c0f1  ti_sysbios_knl_Task_disable__E                                            
1001c23f  ti_sysbios_knl_Task_enable__E                                             
1001be05  ti_sysbios_knl_Task_enter__I                                              
1001b425  ti_sysbios_knl_Task_exit__E                                               
00001412  ti_sysbios_knl_Task_initStackFlag__C                                      
00001400  ti_sysbios_knl_Task_numConstructedTasks__C                                
1001a611  ti_sysbios_knl_Task_postInit__I                                           
1001b735  ti_sysbios_knl_Task_processVitalTaskFlag__I                               
1001be25  ti_sysbios_knl_Task_restoreHwi__E                                         
1001ba45  ti_sysbios_knl_Task_restore__E                                            
1001b175  ti_sysbios_knl_Task_schedule__I                                           
1001c1e1  ti_sysbios_knl_Task_self__E                                               
1001bf7d  ti_sysbios_knl_Task_sleepTimeout__I                                       
1001a9d9  ti_sysbios_knl_Task_sleep__E                                              
1001ae75  ti_sysbios_knl_Task_startCore__E                                          
1001c305  ti_sysbios_knl_Task_startup__E                                            
1001ca6d  ti_sysbios_knl_Task_swapReturn                                            
1001b9a1  ti_sysbios_knl_Task_unblockI__E                                           
1001bfb1  ti_sysbios_knl_Task_unblock__E                                            
1001b3a5  ti_sysbios_knl_Task_yield__E                                              
00001494  ti_sysbios_rom_ROM_AONRTCChannelEnable                                    
00001498  ti_sysbios_rom_ROM_AONRTCCompareValueSet                                  
0000149c  ti_sysbios_rom_ROM_AONRTCCurrentCompareValueGet                           
000014a0  ti_sysbios_rom_ROM_AONRTCEventClear                                       
000014a4  ti_sysbios_rom_ROM_ti_sysbios_family_arm_cc26xx_Timer_getCount64__E       
000014a8  ti_sysbios_rom_ROM_ti_sysbios_family_arm_cc26xx_Timer_getCurrentTick__E   
000014ac  ti_sysbios_rom_ROM_ti_sysbios_family_arm_cc26xx_Timer_getMaxTicks__E      
000014b0  ti_sysbios_rom_ROM_ti_sysbios_family_arm_cc26xx_Timer_initDevice__I       
000014b4  ti_sysbios_rom_ROM_ti_sysbios_family_arm_cc26xx_Timer_setNextTick__E      
000014b8  ti_sysbios_rom_ROM_ti_sysbios_family_arm_cc26xx_Timer_setThreshold__I     
000014bc  ti_sysbios_rom_ROM_ti_sysbios_family_arm_cc26xx_Timer_start__E            
000014c0  ti_sysbios_rom_ROM_ti_sysbios_family_arm_cc26xx_TimestampProvider_get32__E
000014c4  ti_sysbios_rom_ROM_xdc_runtime_Startup_getState__I                        
000014c8  ti_sysbios_rom_ROM_xdc_runtime_System_SupportProxy_abort__E               
000014cc  ti_sysbios_rom_ROM_xdc_runtime_System_SupportProxy_exit__E                
00008589  ti_sysbios_rom_cortexm_cc13xx_CC13xx_badRomRevision__E                    
000081d1  ti_sysbios_rom_cortexm_cc13xx_CC13xx_checkRevision__E                     
1001ca97  ti_sysbios_rom_cortexm_cc13xx_CC13xx_getRevision__E                       
0000be78  uartCC26XXHWAttrs                                                         
20001a98  uartCC26XXObjects                                                         
00001428  xdc_runtime_Assert_E_assertFailed__C                                      
1001c5a5  xdc_runtime_Assert_raise__I                                               
1001c6e9  xdc_runtime_Core_assignLabel__I                                           
1001c5ed  xdc_runtime_Core_assignParams__I                                          
1001c635  xdc_runtime_Core_constructObject__I                                       
1001c401  xdc_runtime_Core_createObject__I                                          
1001c4f5  xdc_runtime_Core_deleteObject__I                                          
1001c79d  xdc_runtime_Core_destructObject__I                                        
0000142c  xdc_runtime_Error_E_memory__C                                             
1001c7b5  xdc_runtime_Error_check__E                                                
1001c83d  xdc_runtime_Error_init__E                                                 
00001430  xdc_runtime_Error_policyFxn__C                                            
1001c483  xdc_runtime_Error_policySpin__E                                           
00001490  xdc_runtime_Error_policy__C                                               
1001c765  xdc_runtime_Error_raiseX__E                                               
1001c881  xdc_runtime_Gate_enterSystem__E                                           
1001c875  xdc_runtime_Gate_leaveSystem__E                                           
00001434  xdc_runtime_IGateProvider_Interface__BASE__C                              
00001438  xdc_runtime_IHeap_Interface__BASE__C                                      
0000143c  xdc_runtime_IModule_Interface__BASE__C                                    
UNDEFED   xdc_runtime_Main_Module_GateProxy_Handle__label__S                        
UNDEFED   xdc_runtime_Main_Module_GateProxy_Object__delete__S                       
UNDEFED   xdc_runtime_Main_Module_GateProxy_query__E                                
00001440  xdc_runtime_Main_Module__diagsEnabled__C                                  
00001444  xdc_runtime_Main_Module__diagsIncluded__C                                 
00001448  xdc_runtime_Main_Module__diagsMask__C                                     
00001488  xdc_runtime_Main_Module__id__C                                            
1001bc85  xdc_runtime_Memory_HeapProxy_Handle__label__S                             
UNDEFED   xdc_runtime_Memory_HeapProxy_Handle__label__S__mangled__                  
1001bca5  xdc_runtime_Memory_HeapProxy_Object__delete__S                            
UNDEFED   xdc_runtime_Memory_HeapProxy_Object__delete__S__mangled__                 
1001c885  xdc_runtime_Memory_HeapProxy_alloc__E                                     
1001c889  xdc_runtime_Memory_HeapProxy_free__E                                      
0000148a  xdc_runtime_Memory_Module__id__C                                          
20000200  xdc_runtime_Memory_Module__state__V                                       
1001c485  xdc_runtime_Memory_alloc__E                                               
1001c849  xdc_runtime_Memory_calloc__E                                              
0000144c  xdc_runtime_Memory_defaultHeapInstance__C                                 
1001c7fd  xdc_runtime_Memory_free__E                                                
1001c855  xdc_runtime_Memory_getMaxDefaultTypeAlign__E                              
1001c781  xdc_runtime_Memory_valloc__E                                              
200001f0  xdc_runtime_Startup_Module__state__V                                      
00000001  xdc_runtime_Startup__EXECFXN__C                                           
00000001  xdc_runtime_Startup__RESETFXN__C                                          
00001450  xdc_runtime_Startup_execImpl__C                                           
1001c555  xdc_runtime_Startup_exec__E                                               
0000833b  xdc_runtime_Startup_exec__I                                               
0000bf38  xdc_runtime_Startup_firstFxns__A                                          
00001418  xdc_runtime_Startup_firstFxns__C                                          
00006c9d  xdc_runtime_Startup_getState__I                                           
00001420  xdc_runtime_Startup_lastFxns__C                                           
00001454  xdc_runtime_Startup_maxPasses__C                                          
000084f1  xdc_runtime_Startup_reset__I                                              
000084fd  xdc_runtime_Startup_rtsDone__E                                            
0000bf08  xdc_runtime_Startup_sfxnRts__A                                            
00001458  xdc_runtime_Startup_sfxnRts__C                                            
0000be34  xdc_runtime_Startup_sfxnTab__A                                            
0000145c  xdc_runtime_Startup_sfxnTab__C                                            
00001460  xdc_runtime_Startup_startModsFxn__C                                       
1001c309  xdc_runtime_Startup_startMods__I                                          
00001464  xdc_runtime_SysCallback_abortFxn__C                                       
1001c80d  xdc_runtime_SysCallback_abort__E                                          
0000858b  xdc_runtime_SysCallback_defaultAbort                                      
0000858d  xdc_runtime_SysCallback_defaultExit                                       
00001468  xdc_runtime_SysCallback_exitFxn__C                                        
1001c81d  xdc_runtime_SysCallback_exit__E                                           
1001bbe5  xdc_runtime_System_Module_GateProxy_Handle__label__S                      
UNDEFED   xdc_runtime_System_Module_GateProxy_Handle__label__S__mangled__           
1001bc05  xdc_runtime_System_Module_GateProxy_Object__delete__S                     
UNDEFED   xdc_runtime_System_Module_GateProxy_Object__delete__S__mangled__          
1001c88d  xdc_runtime_System_Module_GateProxy_enter__E                              
1001c891  xdc_runtime_System_Module_GateProxy_leave__E                              
1001c265  xdc_runtime_System_Module_GateProxy_query__E                              
UNDEFED   xdc_runtime_System_Module_GateProxy_query__E__mangled__                   
20000c78  xdc_runtime_System_Module_State_0_atexitHandlers__A                       
200001f8  xdc_runtime_System_Module__state__V                                       
1001c87b  xdc_runtime_System_Module_startup__E                                      
UNDEFED   xdc_runtime_System_SupportProxy_abort__E                                  
UNDEFED   xdc_runtime_System_SupportProxy_exit__E                                   
0000146c  xdc_runtime_System_abortFxn__C                                            
1001c895  xdc_runtime_System_abortSpin__E                                           
1001c745  xdc_runtime_System_abort__E                                               
1001c67d  xdc_runtime_System_atexit__E                                              
00001470  xdc_runtime_System_exitFxn__C                                             
1001c897  xdc_runtime_System_exitSpin__E                                            
1001c7cd  xdc_runtime_System_exit__E                                                
00001474  xdc_runtime_System_maxAtexitHandlers__C                                   
1001c6b5  xdc_runtime_System_processAtExit__E                                       
0000148c  xdc_runtime_Text_charCnt__C                                               
0000bede  xdc_runtime_Text_charTab__A                                               
00001478  xdc_runtime_Text_charTab__C                                               
1001c719  xdc_runtime_Text_cordText__E                                              
0000148e  xdc_runtime_Text_isLoaded__C                                              
0000147c  xdc_runtime_Text_nameEmpty__C                                             
00001480  xdc_runtime_Text_nameStatic__C                                            
00001484  xdc_runtime_Text_nameUnknown__C                                           
1001c7e5  xdc_runtime_Text_ropeText__E                                              
1001c82d  xdc_runtime_Timestamp_SupportProxy_get32__E                               
00008409  xdc_runtime_Timestamp_SupportProxy_get32__E__mangled__                    
1001b9cd  xdc_runtime_Timestamp_SupportProxy_get64__E                               
UNDEFED   xdc_runtime_Timestamp_SupportProxy_get64__E__mangled__                    
1001c12b  xdc_runtime_Timestamp_SupportProxy_getFreq__E                             
UNDEFED   xdc_runtime_Timestamp_SupportProxy_getFreq__E__mangled__                  
1001c82d  xdc_runtime_Timestamp_get32__E                                            
UNDEFED   xdc_runtime_Timestamp_get32__E                                            
1001b9cd  xdc_runtime_Timestamp_get64__E                                            
UNDEFED   xdc_runtime_Timestamp_get64__E                                            
1001c12b  xdc_runtime_Timestamp_getFreq__E                                          
UNDEFED   xdc_runtime_Timestamp_getFreq__E                                          


GLOBAL SYMBOLS: SORTED BY Symbol Address 

address   name                                                                      
-------   ----                                                                      
00000000  __ASM__                                                                   
00000000  ti_sysbios_family_arm_m3_Hwi_resetVectors                                 
00000001  xdc_runtime_Startup__EXECFXN__C                                           
00000001  xdc_runtime_Startup__RESETFXN__C                                          
00000040  __TI_static_base__                                                        
0000007a  __ISA__                                                                   
0000008c  __PLAT__                                                                  
000000b3  __TARG__                                                                  
000000d8  __TRDR__                                                                  
000003ac  __TI_Handler_Table_Base                                                   
000003b8  __TI_Handler_Table_Limit                                                  
000003f0  __TI_CINIT_Base                                                           
00000400  __STACK_SIZE                                                              
00000450  __TI_CINIT_Limit                                                          
00001000  ti_sysbios_knl_Task_Object__PARAMS__C                                     
0000103c  ti_sysbios_knl_Mailbox_Object__PARAMS__C                                  
00001070  ti_sysbios_family_arm_m3_Hwi_Object__PARAMS__C                            
000010a0  ti_sysbios_hal_Hwi_Object__PARAMS__C                                      
000010cc  ti_sysbios_heaps_HeapMem_Module__FXNS__C                                  
000010f4  ti_sysbios_knl_Swi_Object__PARAMS__C                                      
0000111c  ti_sysbios_gates_GateHwi_Module__FXNS__C                                  
00001140  ti_sysbios_gates_GateMutex_Module__FXNS__C                                
00001164  ti_sysbios_heaps_HeapMem_Object__PARAMS__C                                
00001188  ti_sysbios_knl_Clock_Object__PARAMS__C                                    
000011ac  ti_sysbios_knl_Semaphore_Object__PARAMS__C                                
000011d0  ti_sysbios_family_arm_m3_Hwi_Object__DESC__C                              
000011f0  ti_sysbios_gates_GateHwi_Object__DESC__C                                  
00001210  ti_sysbios_gates_GateMutex_Object__DESC__C                                
00001230  ti_sysbios_hal_Hwi_Object__DESC__C                                        
00001250  ti_sysbios_heaps_HeapMem_Object__DESC__C                                  
00001270  ti_sysbios_knl_Clock_Object__DESC__C                                      
00001290  ti_sysbios_knl_Mailbox_Object__DESC__C                                    
000012b0  ti_sysbios_knl_Queue_Object__DESC__C                                      
000012d0  ti_sysbios_knl_Semaphore_Object__DESC__C                                  
000012f0  ti_sysbios_knl_Swi_Object__DESC__C                                        
00001310  ti_sysbios_knl_Task_Object__DESC__C                                       
00001330  ti_sysbios_gates_GateHwi_Object__PARAMS__C                                
00001348  ti_sysbios_gates_GateMutex_Object__PARAMS__C                              
00001360  ti_sysbios_knl_Queue_Object__PARAMS__C                                    
00001378  ti_sysbios_knl_Idle_funcList__C                                           
00001384  ti_sysbios_family_arm_cc26xx_Timer_startupNeeded__C                       
00001388  ti_sysbios_family_arm_m3_Hwi_E_alreadyDefined__C                          
0000138c  ti_sysbios_family_arm_m3_Hwi_E_hwiLimitExceeded__C                        
00001390  ti_sysbios_family_arm_m3_Hwi_NUM_INTERRUPTS__C                            
00001394  ti_sysbios_family_arm_m3_Hwi_Object__count__C                             
00001398  ti_sysbios_family_arm_m3_Hwi_Object__table__C                             
0000139c  ti_sysbios_family_arm_m3_Hwi_ccr__C                                       
000013a0  ti_sysbios_family_arm_m3_Hwi_excHandlerFunc__C                            
000013a4  ti_sysbios_family_arm_m3_Hwi_nullIsrFunc__C                               
000013a8  ti_sysbios_family_arm_m3_Hwi_numSparseInterrupts__C                       
000013ac  ti_sysbios_family_arm_m3_Hwi_priGroup__C                                  
000013b0  ti_sysbios_family_arm_m3_TaskSupport_stackAlignment__C                    
000013b4  ti_sysbios_heaps_HeapMem_E_memory__C                                      
000013b8  ti_sysbios_heaps_HeapMem_Module__gateObj__C                               
000013bc  ti_sysbios_heaps_HeapMem_Object__count__C                                 
000013c0  ti_sysbios_heaps_HeapMem_Object__table__C                                 
000013c4  ti_sysbios_heaps_HeapMem_reqAlign__C                                      
000013c8  ti_sysbios_knl_Clock_serviceMargin__C                                     
000013cc  ti_sysbios_knl_Mailbox_Object__count__C                                   
000013d0  ti_sysbios_knl_Mailbox_Object__table__C                                   
000013d4  ti_sysbios_knl_Mailbox_maxTypeAlign__C                                    
000013d8  ti_sysbios_knl_Queue_Object__count__C                                     
000013dc  ti_sysbios_knl_Queue_Object__table__C                                     
000013e0  ti_sysbios_knl_Swi_Object__count__C                                       
000013e4  ti_sysbios_knl_Swi_Object__table__C                                       
000013e8  ti_sysbios_knl_Swi_numPriorities__C                                       
000013ec  ti_sysbios_knl_Task_Object__count__C                                      
000013f0  ti_sysbios_knl_Task_Object__table__C                                      
000013f4  ti_sysbios_knl_Task_allBlockedFunc__C                                     
000013f8  ti_sysbios_knl_Task_defaultStackHeap__C                                   
000013fc  ti_sysbios_knl_Task_defaultStackSize__C                                   
00001400  ti_sysbios_knl_Task_numConstructedTasks__C                                
00001406  ti_sysbios_family_arm_cc26xx_Timer_Module__id__C                          
00001408  ti_sysbios_family_arm_cc26xx_TimestampProvider_useClockTimer__C           
0000140a  ti_sysbios_family_arm_m3_Hwi_Module__id__C                                
0000140c  ti_sysbios_gates_GateHwi_Module__id__C                                    
0000140e  ti_sysbios_gates_GateMutex_Module__id__C                                  
00001410  ti_sysbios_heaps_HeapMem_Module__id__C                                    
00001412  ti_sysbios_knl_Task_initStackFlag__C                                      
00001414  ti_sysbios_knl_Clock_tickMode__C                                          
00001418  xdc_runtime_Startup_firstFxns__C                                          
00001420  xdc_runtime_Startup_lastFxns__C                                           
00001428  xdc_runtime_Assert_E_assertFailed__C                                      
0000142c  xdc_runtime_Error_E_memory__C                                             
00001430  xdc_runtime_Error_policyFxn__C                                            
00001434  xdc_runtime_IGateProvider_Interface__BASE__C                              
00001438  xdc_runtime_IHeap_Interface__BASE__C                                      
0000143c  xdc_runtime_IModule_Interface__BASE__C                                    
00001440  xdc_runtime_Main_Module__diagsEnabled__C                                  
00001444  xdc_runtime_Main_Module__diagsIncluded__C                                 
00001448  xdc_runtime_Main_Module__diagsMask__C                                     
0000144c  xdc_runtime_Memory_defaultHeapInstance__C                                 
00001450  xdc_runtime_Startup_execImpl__C                                           
00001454  xdc_runtime_Startup_maxPasses__C                                          
00001458  xdc_runtime_Startup_sfxnRts__C                                            
0000145c  xdc_runtime_Startup_sfxnTab__C                                            
00001460  xdc_runtime_Startup_startModsFxn__C                                       
00001464  xdc_runtime_SysCallback_abortFxn__C                                       
00001468  xdc_runtime_SysCallback_exitFxn__C                                        
0000146c  xdc_runtime_System_abortFxn__C                                            
00001470  xdc_runtime_System_exitFxn__C                                             
00001474  xdc_runtime_System_maxAtexitHandlers__C                                   
00001478  xdc_runtime_Text_charTab__C                                               
0000147c  xdc_runtime_Text_nameEmpty__C                                             
00001480  xdc_runtime_Text_nameStatic__C                                            
00001484  xdc_runtime_Text_nameUnknown__C                                           
00001488  xdc_runtime_Main_Module__id__C                                            
0000148a  xdc_runtime_Memory_Module__id__C                                          
0000148c  xdc_runtime_Text_charCnt__C                                               
0000148e  xdc_runtime_Text_isLoaded__C                                              
00001490  xdc_runtime_Error_policy__C                                               
00001494  ti_sysbios_rom_ROM_AONRTCChannelEnable                                    
00001498  ti_sysbios_rom_ROM_AONRTCCompareValueSet                                  
0000149c  ti_sysbios_rom_ROM_AONRTCCurrentCompareValueGet                           
000014a0  ti_sysbios_rom_ROM_AONRTCEventClear                                       
000014a4  ti_sysbios_rom_ROM_ti_sysbios_family_arm_cc26xx_Timer_getCount64__E       
000014a8  ti_sysbios_rom_ROM_ti_sysbios_family_arm_cc26xx_Timer_getCurrentTick__E   
000014ac  ti_sysbios_rom_ROM_ti_sysbios_family_arm_cc26xx_Timer_getMaxTicks__E      
000014b0  ti_sysbios_rom_ROM_ti_sysbios_family_arm_cc26xx_Timer_initDevice__I       
000014b4  ti_sysbios_rom_ROM_ti_sysbios_family_arm_cc26xx_Timer_setNextTick__E      
000014b8  ti_sysbios_rom_ROM_ti_sysbios_family_arm_cc26xx_Timer_setThreshold__I     
000014bc  ti_sysbios_rom_ROM_ti_sysbios_family_arm_cc26xx_Timer_start__E            
000014c0  ti_sysbios_rom_ROM_ti_sysbios_family_arm_cc26xx_TimestampProvider_get32__E
000014c4  ti_sysbios_rom_ROM_xdc_runtime_Startup_getState__I                        
000014c8  ti_sysbios_rom_ROM_xdc_runtime_System_SupportProxy_abort__E               
000014cc  ti_sysbios_rom_ROM_xdc_runtime_System_SupportProxy_exit__E                
000014d0  ti_sysbios_gates_GateMutex_Instance_State_sem__O                          
000014d4  ti_sysbios_knl_Clock_Module_State_clockQ__O                               
000014d8  ti_sysbios_knl_Mailbox_Instance_State_dataQue__O                          
000014dc  ti_sysbios_knl_Mailbox_Instance_State_dataSem__O                          
000014e0  ti_sysbios_knl_Mailbox_Instance_State_freeQue__O                          
000014e4  ti_sysbios_knl_Mailbox_Instance_State_freeSem__O                          
000014e8  ti_sysbios_knl_Semaphore_Instance_State_pendQ__O                          
000014ec  ti_sysbios_knl_Task_Module_State_inactiveQ__O                             
00001889  EasyLink_init                                                             
00001bd1  PowerCC26XX_auxISR                                                        
00001edd  Power_sleep                                                               
00002109  NOROM_SysCtrlSetRechargeBeforePowerDown                                   
00002331  __aeabi_uldivmod                                                          
000026f9  PIN_init                                                                  
000028ad  PowerCC26XX_doCalibrate                                                   
00002a45  UARTCC26XX_open                                                           
0000306d  EasyLink_receiveAsync                                                     
0000333d  RF_postCmd                                                                
000035e1  EasyLink_transmit                                                         
0000385d  Power_init                                                                
00003991  NOROM_SetupAfterColdResetWakeupFromShutDownCfg3                           
00004079  UARTCC26XX_read                                                           
000043bd  UARTCC26XX_hwiIntFxn                                                      
000044c9  RF_close                                                                  
000045d1  UARTCC26XX_write                                                          
000046cd  GPIO_setConfig                                                            
000047bd  NOROM_SetupAfterColdResetWakeupFromShutDownCfg2                           
000048ad  RF_open                                                                   
0000499d  ti_sysbios_knl_Event_pend__E                                              
00004b61  EasyLink_enableRxAddrFilter                                               
00004c39  NOROM_RFCRTrim                                                            
00004ec1  NOROM_RFCRfTrimRead                                                       
00004f95  PowerCC26XX_standbyPolicy                                                 
00005065  Power_releaseDependency                                                   
00005131  Power_setDependency                                                       
000052b9  EasyLink_setCtrl                                                          
000055a9  NodeRadioTask_init                                                        
00005655  NOROM_SetupTrimDevice                                                     
00005655  ti_sysbios_family_arm_cc26xx_Boot_trimDevice                              
000056fd  NOROM_SetupAfterColdResetWakeupFromShutDownCfg1                           
000057a1  __TI_auto_init                                                            
00005841  NodeTask_init                                                             
000058dd  __aeabi_memcpy                                                            
000058dd  __aeabi_memcpy4                                                           
000058dd  __aeabi_memcpy8                                                           
000058dd  memcpy                                                                    
00005979  PIN_open                                                                  
00005aa9  ti_sysbios_knl_Clock_workFuncDynamic__E                                   
00005c69  UARTCC26XX_writeCancel                                                    
00005d81  RF_pendCmd                                                                
00005f99  GPIO_init                                                                 
00006015  __aeabi_memclr                                                            
00006015  __aeabi_memclr4                                                           
00006015  __aeabi_memclr8                                                           
00006017  __aeabi_memset                                                            
00006017  __aeabi_memset4                                                           
00006017  __aeabi_memset8                                                           
0000601d  memset                                                                    
00006109  NOROM_SetupSetVddrLevel                                                   
0000617d  UARTCC26XX_close                                                          
00006265  ti_sysbios_family_arm_cc26xx_Timer_start__E                               
00006349  scifGetTaskStruct                                                         
000063b9  ti_sysbios_knl_Event_post__E                                              
00006429  NOROM_SetupGetTrimForAmpcompCtrl                                          
00006495  PowerCC26XX_calibrate                                                     
00006501  commissionTask_init                                                       
0000656d  NOROM_SetupGetTrimForAnabypassValue1                                      
000065d5  NOROM_SysCtrl_DCDC_VoltageConditionalControl                              
0000663d  PowerCC26XX_initiateCalibration                                           
000066a5  UARTCC26XX_readCancel                                                     
0000670d  __TI_decompress_lzss                                                      
00006775  NOROM_OSCHF_AttemptToSwitchToXosc                                         
000067d9  PIN_add                                                                   
000068a1  NOROM_OSCClockSourceSet                                                   
00006901  UARTCC26XX_control                                                        
00006961  NOROM_SysCtrlAdjustRechargeAfterPowerDown                                 
000069bd  NodeRadioTask_sendAdcData                                                 
00006a19  PowerCC26XX_RCOSC_clockFunc                                               
00006c41  ti_sysbios_heaps_HeapMem_initPrimary__I                                   
00006c9d  xdc_runtime_Startup_getState__I                                           
00006cf9  PIN_remove                                                                
00006e59  GPIO_write                                                                
00006ead  RF_getCurrentTime                                                         
00006fa9  NOROM_SetupSetCacheModeAccordingToCcfgSetting                             
000070e5  copy_in                                                                   
00007131  PIN_setOutputEnable                                                       
000071bd  RF_releasePowerConstraint                                                 
00007201  RingBuf_put                                                               
00007245  ResetISR                                                                  
00007245  _c_int00                                                                  
000072cd  UART_init                                                                 
0000730d  UART_open                                                                 
0000734d  RingBuf_get                                                               
0000738d  GPIO_enableInt                                                            
000073c9  NOROM_ChipInfo_GetHwRevision                                              
00007405  NOROM_OSC_HPOSCRelativeFrequencyOffsetGet                                 
00007441  NOROM_RFCSynthPowerDown                                                   
0000747d  RF_runCmd                                                                 
000074b9  PIN_setOutputValue                                                        
00007529  UARTCC26XX_swiIntFxn                                                      
00007561  gpioButtonFxn1                                                            
00007609  CC1310_LAUNCHXL_initGeneral                                               
0000763d  GPIO_setCallback                                                          
00007671  GPIO_toggle                                                               
000076a5  NOROM_OSCHF_SwitchToRcOscTurnOffXosc                                      
000076d9  PIN_setConfig                                                             
00007741  ti_sysbios_family_arm_cc26xx_Timer_initDevice__I                          
00007775  ti_sysbios_family_arm_cc26xx_Timer_setNextTick__E                         
000077a9  NOROM_ChipInfo_GetChipType                                                
000077d9  NOROM_SetupSetAonRtcSubSecInc                                             
00007809  Power_releaseConstraint                                                   
00007839  Power_setConstraint                                                       
000078c9  ti_sysbios_BIOS_atExitFunc__I                                             
000078f9  ti_sysbios_BIOS_startFunc__I                                              
00007929  ti_sysbios_family_arm_cc26xx_Timer_getCurrentTick__E                      
00007959  ti_sysbios_family_arm_cc26xx_Timer_setThreshold__I                        
00007989  GPIO_read                                                                 
000079b5  NOROM_DDI32RegWrite                                                       
000079e1  NOROM_OSCClockSourceGet                                                   
00007a0d  NOROM_RFCCPEPatchReset                                                    
00007a39  NOROM_SetupGetTrimForRadcExtCfg                                           
00007a65  PINCC26XX_setMux                                                          
00007ae9  ti_sysbios_knl_Clock_getTicksUntilInterrupt__E                            
00007b15  ti_sysbios_knl_Event_construct                                            
00007b41  ti_sysbios_knl_Event_pendTimeout__I                                       
00007b6d  NOROM_AONBatMonTemperatureGetDegC                                         
00007b95  Power_registerNotify                                                      
00007bbd  SafeHapiVoid                                                              
00007be5  GPIO_hwiIntFxn                                                            
00007c09  PINCC26XX_getPinCount                                                     
00007c2d  SceAdc_setReportInterval                                                  
00007c99  ti_sysbios_BIOS_registerRTSLock__I                                        
00007cbd  ti_sysbios_BIOS_removeRTSLock__I                                          
00007ce1  ti_sysbios_family_arm_cc26xx_Timer_getMaxTicks__E                         
00007d05  List_put                                                                  
00007d29  NOROM_RFCAdi3VcoLdoVoltageMode                                            
00007d49  NOROM_RFCDoorbellSendTo                                                   
00007d69  NOROM_SetupGetTrimForXoscHfCtl                                            
00007d89  Power_unregisterNotify                                                    
00007dc9  ti_sysbios_BIOS_rtsLock__I                                                
00007de9  ti_sysbios_family_arm_cc26xx_Timer_dynamicStub__E                         
00007e09  ti_sysbios_knl_Clock_stop__E                                              
00007e29  ti_sysbios_knl_Event_checkEvents__I                                       
00007e49  PIN_close                                                                 
00007e67  Power_getTransitionLatency                                                
00007e85  NOROM_ChipInfo_GetChipFamily                                              
00007ea1  NOROM_SetupGetTrimForAmpcompTh2                                           
00007ebd  NOROM_SetupGetTrimForRcOscLfRtuneCtuneTrim                                
00007f11  RF_setPowerConstraint                                                     
00007fd5  List_remove                                                               
00007fef  main                                                                      
00008009  NOROM_AONRTCCurrentCompareValueGet                                        
00008021  NOROM_ChipInfo_GetPackageType                                             
00008039  NOROM_OSCHF_TurnOnXosc                                                    
00008051  NOROM_RFCCpeIntGetAndClear                                                
00008069  NOROM_SetupGetTrimForAdcShModeEn                                          
00008081  NOROM_SetupGetTrimForAdcShVbufEn                                          
00008099  NOROM_SetupGetTrimForAmpcompTh1                                           
000080b1  NOROM_SetupGetTrimForDblrLoopFilterResetVoltage                           
000080c9  NOROM_SetupGetTrimForRcOscLfIBiasTrim                                     
000080e1  NOROM_SetupGetTrimForXoscLfRegulatorAndCmirrwrRatio                       
000080f9  Power_idleFunc                                                            
00008111  UARTCC26XX_init                                                           
00008129  UART_Params_init                                                          
00008159  _args_main                                                                
00008171  __aeabi_lmul                                                              
000081a1  ti_sysbios_BIOS_rtsUnlock__I                                              
000081b9  ti_sysbios_knl_Swi_or__E                                                  
000081d1  ti_sysbios_rom_cortexm_cc13xx_CC13xx_checkRevision__E                     
000081e9  NOROM_ThisLibraryIsFor_CC13x0_HwRev20AndLater_HaltIfViolated              
00008215  ti_sysbios_BIOS_exitFunc__I                                               
000082c5  NOROM_AONRTCCurrent64BitValueGet                                          
000082d9  RF_Params_init                                                            
000082ed  _register_unlock                                                          
000082f3  _register_lock                                                            
000082fb  _nop                                                                      
00008301  ti_sysbios_knl_Clock_doTick__I                                            
00008315  ti_sysbios_knl_Event_Instance_init__E                                     
00008329  RingBuf_construct                                                         
0000833b  xdc_runtime_Startup_exec__I                                               
0000834d  NOROM_RFCRfTrimSet                                                        
0000835d  NOROM_SetupGetTrimForXoscHfFastStart                                      
0000836d  NOROM_SetupGetTrimForXoscHfIbiastherm                                     
000083bd  fastReportTimeoutCallback                                                 
000083cd  ti_sysbios_family_arm_m3_Hwi_post__E                                      
000083cd  ti_sysbios_hal_Hwi_HwiProxy_post__E                                       
000083cd  ti_sysbios_hal_Hwi_post__E                                                
000083ed  NOROM_VIMSModeGet                                                         
000083fb  __TI_decompress_none                                                      
00008409  ti_sysbios_family_arm_cc26xx_TimestampProvider_get32__E                   
00008409  xdc_runtime_Timestamp_SupportProxy_get32__E__mangled__                    
00008417  ti_sysbios_BIOS_linkedWithIncorrectBootLibrary__E                         
00008425  List_empty                                                                
00008431  NOROM_CPUcpsid                                                            
0000843d  NOROM_CPUcpsie                                                            
00008449  NOROM_OSC_HPOSCRelativeFrequencyOffsetToRFCoreFormatConvert               
00008455  PIN_registerIntCb                                                         
00008461  Power_getConstraintMask                                                   
0000846d  Power_getDependencyCount                                                  
0000849d  __TI_zero_init                                                            
000084b5  ti_sysbios_knl_Event_Params__init__S                                      
000084e5  ti_sysbios_knl_Swi_getTrigger__E                                          
000084f1  xdc_runtime_Startup_reset__I                                              
000084fd  xdc_runtime_Startup_rtsDone__E                                            
00008509  UART_read                                                                 
00008513  UART_write                                                                
0000854d  UARTCC26XX_readPolling                                                    
00008553  UARTCC26XX_writePolling                                                   
0000855f  ti_sysbios_family_arm_m3_Hwi_setFunc__E                                   
00008569  HwiP_disable                                                              
0000856d  List_head                                                                 
00008571  List_next                                                                 
0000857d  ti_sysbios_family_arm_cc26xx_Timer_getCount64__E                          
00008581  ti_sysbios_knl_Clock_isActive__E                                          
00008585  ti_sysbios_BIOS_nullFunc__I                                               
00008587  ti_sysbios_knl_Clock_triggerFunc__I                                       
00008589  ti_sysbios_rom_cortexm_cc13xx_CC13xx_badRomRevision__E                    
0000858b  xdc_runtime_SysCallback_defaultAbort                                      
0000858d  xdc_runtime_SysCallback_defaultExit                                       
0000bca8  resourceDB                                                                
0000bd7c  inPinTypes                                                                
0000bd88  outPinStrengths                                                           
0000bd94  outPinTypes                                                               
0000bdbc  BoardGpioInitTable                                                        
0000bde8  UARTCC26XX_fxnTable                                                       
0000be10  UART_defaultParams                                                        
0000be34  xdc_runtime_Startup_sfxnTab__A                                            
0000be58  ti_sysbios_knl_Event_Object__DESC__C                                      
0000be78  uartCC26XXHWAttrs                                                         
0000beb0  ti_sysbios_knl_Event_Object__PARAMS__C                                    
0000bede  xdc_runtime_Text_charTab__A                                               
0000bee0  GPIOCC26XX_config                                                         
0000bf08  xdc_runtime_Startup_sfxnRts__A                                            
0000bf1c  PowerCC26XX_config                                                        
0000bf2c  UART_config                                                               
0000bf38  xdc_runtime_Startup_firstFxns__A                                          
0000bf44  ADCBuf_count                                                              
0000bf45  ADC_count                                                                 
0000bf46  Display_count                                                             
0000bf47  I2C_count                                                                 
0000bf48  PWM_count                                                                 
0000bf49  SPI_count                                                                 
0000bf4a  UART_count                                                                
0000bf4b  Watchdog_count                                                            
0000bf4c  PINCC26XX_hwAttrs                                                         
0000bf54  RFCC26XX_hwAttrs                                                          
0000bf58  ti_sysbios_heaps_HeapMem_primaryHeapBaseAddr__C                           
0000bf5c  ti_sysbios_heaps_HeapMem_primaryHeapEndAddr__C                            
0000bf60  ti_sysbios_knl_Clock_tickPeriod__C                                        
0000bf64  ti_sysbios_knl_Clock_triggerClock__C                                      
0000bf68  ti_sysbios_knl_Event_Instance_State_pendQ__O                              
0000bf6c  ti_sysbios_knl_Idle_funcList__A                                           
0001ffa8  __ccfg                                                                    
1001a001  ti_sysbios_knl_Semaphore_pend__E                                          
1001a0cd  ti_sysbios_knl_Mailbox_Instance_init__E                                   
1001a195  ti_sysbios_heaps_HeapMem_alloc__E                                         
1001a259  ti_sysbios_knl_Task_Instance_init__E                                      
1001a315  ti_sysbios_family_arm_m3_Hwi_postInit__I                                  
1001a3c5  ti_sysbios_family_arm_m3_Hwi_Instance_init__E                             
1001a465  ti_sysbios_family_arm_cc26xx_Timer_periodicStub__E                        
1001a4f9  ti_sysbios_knl_Task_Instance_finalize__E                                  
1001a58d  ti_sysbios_knl_Mailbox_post__E                                            
1001a611  ti_sysbios_knl_Task_postInit__I                                           
1001a695  ti_sysbios_family_arm_m3_Hwi_initNVIC__E                                  
1001a715  ti_sysbios_knl_Clock_startI__E                                            
1001a791  ti_sysbios_heaps_HeapMem_free__E                                          
1001a809  ti_sysbios_knl_Clock_walkQueueDynamic__E                                  
1001a881  ti_sysbios_knl_Clock_workFunc__E                                          
1001a8f9  ti_sysbios_knl_Mailbox_Instance_finalize__E                               
1001a969  ti_sysbios_knl_Mailbox_pend__E                                            
1001a9d9  ti_sysbios_knl_Task_sleep__E                                              
1001aa49  ti_sysbios_family_arm_m3_Hwi_dispatchC__I                                 
1001aab1  ti_sysbios_family_arm_m3_Hwi_Object__create__S                            
1001ab15  ti_sysbios_family_arm_m3_Hwi_create                                       
1001ab79  ti_sysbios_hal_Hwi_create                                                 
1001abdd  ti_sysbios_knl_Mailbox_create                                             
1001ac41  ti_sysbios_knl_Semaphore_post__E                                          
1001aca5  ti_sysbios_knl_Swi_Instance_init__E                                       
1001ad05  ti_sysbios_knl_Swi_create                                                 
1001ad61  ti_sysbios_knl_Swi_restoreHwi__E                                          
1001adbd  ti_sysbios_knl_Task_Module_startup__E                                     
1001ae19  ti_sysbios_knl_Task_create                                                
1001ae75  ti_sysbios_knl_Task_startCore__E                                          
1001aed1  ti_sysbios_family_arm_m3_Hwi_Instance_finalize__E                         
1001af29  ti_sysbios_family_arm_m3_Hwi_construct                                    
1001af81  ti_sysbios_knl_Mailbox_construct                                          
1001afd9  ti_sysbios_knl_Swi_run__I                                                 
1001b031  ti_sysbios_knl_Swi_schedule__I                                            
1001b085  ti_sysbios_knl_Swi_construct                                              
1001b0d5  ti_sysbios_knl_Swi_runLoop__I                                             
1001b125  ti_sysbios_knl_Task_construct                                             
1001b175  ti_sysbios_knl_Task_schedule__I                                           
1001b1c1  ti_sysbios_family_arm_m3_Hwi_Module_startup__E                            
1001b209  ti_sysbios_heaps_HeapMem_getStats__E                                      
1001b251  ti_sysbios_family_arm_m3_Hwi_disableInterrupt__E                          
1001b295  ti_sysbios_family_arm_m3_Hwi_enableInterrupt__E                           
1001b2d9  ti_sysbios_knl_Mailbox_Module_startup__E                                  
1001b31d  ti_sysbios_knl_Swi_post__E                                                
1001b361  ti_sysbios_knl_Task_allBlockedFunction__I                                 
1001b3a5  ti_sysbios_knl_Task_yield__E                                              
1001b3e9  ti_sysbios_knl_Clock_create                                               
1001b425  ti_sysbios_knl_Task_exit__E                                               
1001b45f  ti_sysbios_gates_GateHwi_Instance_init__E                                 
1001b461  ti_sysbios_family_arm_m3_Hwi_getStackInfo__E                              
1001b499  ti_sysbios_family_arm_m3_TaskSupport_start__E                             
1001b4d1  ti_sysbios_heaps_HeapMem_Instance_init__E                                 
1001b509  ti_sysbios_knl_Clock_Instance_init__E                                     
1001b541  ti_sysbios_heaps_HeapMem_init__I                                          
1001b575  ti_sysbios_knl_Clock_construct                                            
1001b5a9  ti_sysbios_knl_Semaphore_create                                           
1001b5dd  ti_sysbios_knl_Swi_restore__E                                             
1001b611  ti_sysbios_knl_Task_blockI__E                                             
1001b645  ti_sysbios_gates_GateMutex_Object__create__S                              
1001b675  ti_sysbios_gates_GateMutex_create                                         
1001b6a5  ti_sysbios_gates_GateMutex_enter__E                                       
1001b6d5  ti_sysbios_knl_Clock_getTicks__E                                          
1001b705  ti_sysbios_knl_Semaphore_construct                                        
1001b735  ti_sysbios_knl_Task_processVitalTaskFlag__I                               
1001b765  ti_sysbios_family_arm_cc26xx_Timer_postInit__I                            
1001b791  ti_sysbios_family_arm_cc26xx_Timer_startup__E                             
1001b791  ti_sysbios_knl_Clock_TimerProxy_startup__E                                
1001b7bd  ti_sysbios_family_arm_m3_Hwi_Object__get__S                               
1001b7e9  ti_sysbios_gates_GateMutex_construct                                      
1001b815  ti_sysbios_hal_Hwi_initStack                                              
1001b841  ti_sysbios_heaps_HeapMem_Object__create__S                                
1001b86d  ti_sysbios_heaps_HeapMem_Object__get__S                                   
1001b899  ti_sysbios_knl_Mailbox_Object__get__S                                     
1001b8c5  ti_sysbios_knl_Mailbox_postInit__I                                        
1001b8f1  ti_sysbios_knl_Queue_construct                                            
1001b91d  ti_sysbios_knl_Queue_create                                               
1001b949  ti_sysbios_knl_Semaphore_pendTimeout__I                                   
1001b975  ti_sysbios_knl_Swi_Object__get__S                                         
1001b9a1  ti_sysbios_knl_Task_unblockI__E                                           
1001b9cd  ti_sysbios_family_arm_cc26xx_TimestampProvider_get64__E                   
1001b9cd  xdc_runtime_Timestamp_SupportProxy_get64__E                               
1001b9cd  xdc_runtime_Timestamp_get64__E                                            
1001b9f5  ti_sysbios_hal_Hwi_Instance_init__E                                       
1001ba1d  ti_sysbios_knl_Clock_addI__E                                              
1001ba45  ti_sysbios_knl_Task_restore__E                                            
1001ba6d  ti_sysbios_family_arm_cc26xx_Timer_Module_startup__E                      
1001ba91  ti_sysbios_gates_GateHwi_Object__create__S                                
1001bab5  ti_sysbios_BIOS_RtsGateProxy_Object__delete__S                            
1001bab5  ti_sysbios_gates_GateMutex_Object__delete__S                              
1001bab5  ti_sysbios_heaps_HeapMem_Module_GateProxy_Object__delete__S               
1001bad9  ti_sysbios_knl_Clock_Object__delete__S                                    
1001bafd  ti_sysbios_knl_Semaphore_Instance_init__E                                 
1001bb21  ti_sysbios_knl_Semaphore_Object__delete__S                                
1001bb45  ti_sysbios_family_arm_cc26xx_Timer_Module__startupDone__S                 
1001bb65  ti_sysbios_family_arm_cc26xx_TimestampProvider_Module_startup__E          
1001bb85  ti_sysbios_family_arm_m3_Hwi_Module__startupDone__S                       
1001bba5  ti_sysbios_family_arm_m3_Hwi_Object__delete__S                            
1001bba5  ti_sysbios_hal_Hwi_HwiProxy_Object__delete__S                             
1001bbc5  ti_sysbios_family_arm_m3_Hwi_excHandler__I                                
1001bbe5  ti_sysbios_gates_GateHwi_Handle__label__S                                 
1001bbe5  xdc_runtime_System_Module_GateProxy_Handle__label__S                      
1001bc05  ti_sysbios_gates_GateHwi_Object__delete__S                                
1001bc05  xdc_runtime_System_Module_GateProxy_Object__delete__S                     
1001bc25  ti_sysbios_BIOS_RtsGateProxy_Handle__label__S                             
1001bc25  ti_sysbios_gates_GateMutex_Handle__label__S                               
1001bc25  ti_sysbios_heaps_HeapMem_Module_GateProxy_Handle__label__S                
1001bc45  ti_sysbios_gates_GateMutex_Object__destruct__S                            
1001bc65  ti_sysbios_hal_Hwi_Object__delete__S                                      
1001bc85  ti_sysbios_heaps_HeapMem_Handle__label__S                                 
1001bc85  xdc_runtime_Memory_HeapProxy_Handle__label__S                             
1001bca5  ti_sysbios_heaps_HeapMem_Object__delete__S                                
1001bca5  xdc_runtime_Memory_HeapProxy_Object__delete__S                            
1001bcc5  ti_sysbios_knl_Clock_Module_startup__E                                    
1001bce5  ti_sysbios_knl_Clock_Object__destruct__S                                  
1001bd05  ti_sysbios_knl_Idle_run__E                                                
1001bd25  ti_sysbios_knl_Mailbox_Object__delete__S                                  
1001bd45  ti_sysbios_knl_Queue_Object__delete__S                                    
1001bd65  ti_sysbios_knl_Queue_Object__get__S                                       
1001bd85  ti_sysbios_knl_Semaphore_Object__destruct__S                              
1001bda5  ti_sysbios_knl_Swi_Object__delete__S                                      
1001bdc5  ti_sysbios_knl_Task_Object__delete__S                                     
1001bde5  ti_sysbios_knl_Task_Object__get__S                                        
1001be05  ti_sysbios_knl_Task_enter__I                                              
1001be25  ti_sysbios_knl_Task_restoreHwi__E                                         
1001be45  ti_sysbios_hal_Hwi_HwiProxy_create                                        
1001be63  ti_sysbios_knl_Clock_logTick__E                                           
1001be65  ti_sysbios_family_arm_m3_Hwi_Object__destruct__S                          
1001be81  ti_sysbios_family_arm_m3_Hwi_setPriority__E                               
1001be9d  ti_sysbios_gates_GateMutex_Instance_init__E                               
1001beb9  ti_sysbios_knl_Clock_scheduleNextTick__E                                  
1001bed5  ti_sysbios_knl_Mailbox_Object__destruct__S                                
1001bef1  ti_sysbios_knl_Queue_Object__destruct__S                                  
1001bf0d  ti_sysbios_knl_Queue_get__E                                               
1001bf29  ti_sysbios_knl_Queue_put__E                                               
1001bf45  ti_sysbios_knl_Swi_Object__destruct__S                                    
1001bf61  ti_sysbios_knl_Task_Object__destruct__S                                   
1001bf7d  ti_sysbios_knl_Task_sleepTimeout__I                                       
1001bf97  ti_sysbios_knl_Swi_Instance_finalize__E                                   
1001bf99  ti_sysbios_gates_GateMutex_leave__E                                       
1001bfb1  ti_sysbios_knl_Task_unblock__E                                            
1001bfc9  ti_sysbios_knl_Clock_Instance_finalize__E                                 
1001bfdf  ti_sysbios_knl_Clock_start__E                                             
1001bff5  ti_sysbios_BIOS_getCpuFreq__E                                             
1001c009  ti_sysbios_family_arm_m3_Hwi_switchFromBootStack__E                       
1001c01d  ti_sysbios_hal_Hwi_Module_startup__E                                      
1001c031  ti_sysbios_BIOS_exit__E                                                   
1001c041  ti_sysbios_BIOS_setThreadType__E                                          
1001c051  ti_sysbios_BIOS_start__E                                                  
1001c061  ti_sysbios_family_arm_m3_Hwi_plug__E                                      
1001c071  ti_sysbios_gates_GateMutex_Instance_finalize__E                           
1001c081  ti_sysbios_hal_Hwi_HwiProxy_Object__create__S                             
1001c091  ti_sysbios_knl_Clock_TimerProxy_getCurrentTick__E                         
1001c0a1  ti_sysbios_knl_Clock_TimerProxy_getMaxTicks__E                            
1001c0b1  ti_sysbios_knl_Clock_TimerProxy_setNextTick__E                            
1001c0c1  ti_sysbios_knl_Semaphore_Instance_finalize__E                             
1001c0d1  ti_sysbios_knl_Swi_disable__E                                             
1001c0e1  ti_sysbios_knl_Swi_enabled__E                                             
1001c0f1  ti_sysbios_knl_Task_disable__E                                            
1001c101  ti_sysbios_heaps_HeapMem_restore__E                                       
1001c10f  ti_sysbios_knl_Queue_empty__E                                             
1001c11d  ti_sysbios_knl_Queue_remove__E                                            
1001c12b  ti_sysbios_family_arm_cc26xx_TimestampProvider_getFreq__E                 
1001c12b  xdc_runtime_Timestamp_SupportProxy_getFreq__E                             
1001c12b  xdc_runtime_Timestamp_getFreq__E                                          
1001c139  ti_sysbios_family_arm_m3_Hwi_Params__init__S                              
1001c139  ti_sysbios_hal_Hwi_HwiProxy_Params__init__S                               
1001c145  ti_sysbios_family_arm_m3_Hwi_disableFxn__E                                
1001c151  ti_sysbios_family_arm_m3_Hwi_enableFxn__E                                 
1001c15d  ti_sysbios_family_arm_m3_TaskSupport_getStackAlignment__E                 
1001c169  ti_sysbios_gates_GateHwi_enter__E                                         
1001c175  ti_sysbios_BIOS_RtsGateProxy_Params__init__S                              
1001c175  ti_sysbios_gates_GateMutex_Params__init__S                                
1001c175  ti_sysbios_heaps_HeapMem_Module_GateProxy_Params__init__S                 
1001c181  ti_sysbios_knl_Clock_Params__init__S                                      
1001c18d  ti_sysbios_knl_Clock_getTimerHandle__E                                    
1001c199  ti_sysbios_knl_Mailbox_Params__init__S                                    
1001c1a5  ti_sysbios_knl_Queue_dequeue__E                                           
1001c1b1  ti_sysbios_knl_Queue_enqueue__E                                           
1001c1bd  ti_sysbios_knl_Semaphore_Params__init__S                                  
1001c1c9  ti_sysbios_knl_Swi_Params__init__S                                        
1001c1d5  ti_sysbios_knl_Task_Params__init__S                                       
1001c1e1  ti_sysbios_knl_Task_self__E                                               
1001c1ed  ti_sysbios_hal_Hwi_Instance_finalize__E                                   
1001c1f7  ti_sysbios_family_arm_m3_Hwi_doSwiRestore__I                              
1001c1ff  ti_sysbios_family_arm_m3_Hwi_startup__E                                   
1001c207  ti_sysbios_knl_Idle_loop__E                                               
1001c20f  ti_sysbios_family_arm_m3_Hwi_doTaskRestore__I                             
1001c215  ti_sysbios_family_arm_m3_Hwi_restoreFxn__E                                
1001c21b  ti_sysbios_gates_GateHwi_leave__E                                         
1001c227  ti_sysbios_knl_Queue_Instance_init__E                                     
1001c22d  ti_sysbios_knl_Queue_elemClear__E                                         
1001c233  ti_sysbios_knl_Swi_Module_startup__E                                      
1001c239  ti_sysbios_knl_Swi_startup__E                                             
1001c23f  ti_sysbios_knl_Task_enable__E                                             
1001c245  ti_sysbios_BIOS_RtsGateProxy_enter__E                                     
1001c249  ti_sysbios_BIOS_RtsGateProxy_leave__E                                     
1001c24d  ti_sysbios_family_arm_cc26xx_Timer_getExpiredTicks__E                     
1001c251  ti_sysbios_family_arm_cc26xx_Timer_getPeriod__E                           
1001c255  ti_sysbios_family_arm_cc26xx_Timer_setPeriod__E                           
1001c259  ti_sysbios_family_arm_m3_Hwi_delete                                       
1001c25d  ti_sysbios_family_arm_m3_Hwi_destruct                                     
1001c261  ti_sysbios_family_arm_m3_TaskSupport_Module__startupDone__S               
1001c265  ti_sysbios_gates_GateHwi_query__E                                         
1001c265  xdc_runtime_System_Module_GateProxy_query__E                              
1001c269  ti_sysbios_gates_GateMutex_delete                                         
1001c26d  ti_sysbios_gates_GateMutex_destruct                                       
1001c271  ti_sysbios_BIOS_RtsGateProxy_query__E                                     
1001c271  ti_sysbios_gates_GateMutex_query__E                                       
1001c271  ti_sysbios_heaps_HeapMem_Module_GateProxy_query__E                        
1001c275  ti_sysbios_hal_Hwi_HwiProxy_Module__startupDone__S                        
1001c279  ti_sysbios_hal_Hwi_HwiProxy_delete                                        
1001c27d  ti_sysbios_hal_Hwi_HwiProxy_disableInterrupt__E                           
1001c27d  ti_sysbios_hal_Hwi_disableInterrupt__E                                    
1001c281  ti_sysbios_hal_Hwi_HwiProxy_enableInterrupt__E                            
1001c281  ti_sysbios_hal_Hwi_enableInterrupt__E                                     
1001c285  ti_sysbios_hal_Hwi_HwiProxy_getStackInfo__E                               
1001c285  ti_sysbios_hal_Hwi_getStackInfo__E                                        
1001c289  ti_sysbios_hal_Hwi_HwiProxy_startup__E                                    
1001c289  ti_sysbios_hal_Hwi_startup__E                                             
1001c28d  ti_sysbios_hal_Hwi_HwiProxy_switchFromBootStack__E                        
1001c291  ti_sysbios_hal_Hwi_delete                                                 
1001c295  ti_sysbios_hal_Hwi_switchFromBootStack__E                                 
1001c299  ti_sysbios_heaps_HeapMem_Module_GateProxy_enter__E                        
1001c29d  ti_sysbios_heaps_HeapMem_Module_GateProxy_leave__E                        
1001c2a1  ti_sysbios_heaps_HeapMem_isBlocking__E                                    
1001c2a5  ti_sysbios_knl_Clock_TimerProxy_Module__startupDone__S                    
1001c2a9  ti_sysbios_knl_Clock_TimerProxy_getExpiredTicks__E                        
1001c2ad  ti_sysbios_knl_Clock_TimerProxy_getPeriod__E                              
1001c2b1  ti_sysbios_knl_Clock_delete                                               
1001c2b5  ti_sysbios_knl_Clock_destruct                                             
1001c2b9  ti_sysbios_knl_Clock_removeI__E                                           
1001c2bd  ti_sysbios_knl_Clock_setTimeout__E                                        
1001c2c1  ti_sysbios_knl_Mailbox_delete                                             
1001c2c5  ti_sysbios_knl_Mailbox_destruct                                           
1001c2c9  ti_sysbios_knl_Queue_delete                                               
1001c2cd  ti_sysbios_knl_Queue_destruct                                             
1001c2d1  ti_sysbios_knl_Queue_head__E                                              
1001c2d5  ti_sysbios_knl_Queue_next__E                                              
1001c2d9  ti_sysbios_knl_Semaphore_delete                                           
1001c2dd  ti_sysbios_knl_Semaphore_destruct                                         
1001c2e1  ti_sysbios_knl_Swi_delete                                                 
1001c2e5  ti_sysbios_knl_Swi_destruct                                               
1001c2e9  ti_sysbios_knl_Swi_postInit__I                                            
1001c2ed  ti_sysbios_knl_Task_SupportProxy_Module__startupDone__S                   
1001c2f1  ti_sysbios_knl_Task_SupportProxy_getStackAlignment__E                     
1001c2f5  ti_sysbios_knl_Task_SupportProxy_start__E                                 
1001c2f9  ti_sysbios_knl_Task_SupportProxy_swap__E                                  
1001c2fd  ti_sysbios_knl_Task_delete                                                
1001c301  ti_sysbios_knl_Task_destruct                                              
1001c305  ti_sysbios_knl_Task_startup__E                                            
1001c309  xdc_runtime_Startup_startMods__I                                          
1001c401  xdc_runtime_Core_createObject__I                                          
1001c483  xdc_runtime_Error_policySpin__E                                           
1001c485  xdc_runtime_Memory_alloc__E                                               
1001c4f5  xdc_runtime_Core_deleteObject__I                                          
1001c555  xdc_runtime_Startup_exec__E                                               
1001c5a5  xdc_runtime_Assert_raise__I                                               
1001c5ed  xdc_runtime_Core_assignParams__I                                          
1001c635  xdc_runtime_Core_constructObject__I                                       
1001c67d  xdc_runtime_System_atexit__E                                              
1001c6b5  xdc_runtime_System_processAtExit__E                                       
1001c6e9  xdc_runtime_Core_assignLabel__I                                           
1001c719  xdc_runtime_Text_cordText__E                                              
1001c745  xdc_runtime_System_abort__E                                               
1001c765  xdc_runtime_Error_raiseX__E                                               
1001c781  xdc_runtime_Memory_valloc__E                                              
1001c79d  xdc_runtime_Core_destructObject__I                                        
1001c7b5  xdc_runtime_Error_check__E                                                
1001c7cd  xdc_runtime_System_exit__E                                                
1001c7e5  xdc_runtime_Text_ropeText__E                                              
1001c7fd  xdc_runtime_Memory_free__E                                                
1001c80d  xdc_runtime_SysCallback_abort__E                                          
1001c81d  xdc_runtime_SysCallback_exit__E                                           
1001c82d  xdc_runtime_Timestamp_SupportProxy_get32__E                               
1001c82d  xdc_runtime_Timestamp_get32__E                                            
1001c83d  xdc_runtime_Error_init__E                                                 
1001c849  xdc_runtime_Memory_calloc__E                                              
1001c855  xdc_runtime_Memory_getMaxDefaultTypeAlign__E                              
1001c875  xdc_runtime_Gate_leaveSystem__E                                           
1001c87b  xdc_runtime_System_Module_startup__E                                      
1001c881  xdc_runtime_Gate_enterSystem__E                                           
1001c885  xdc_runtime_Memory_HeapProxy_alloc__E                                     
1001c889  xdc_runtime_Memory_HeapProxy_free__E                                      
1001c88d  xdc_runtime_System_Module_GateProxy_enter__E                              
1001c891  xdc_runtime_System_Module_GateProxy_leave__E                              
1001c895  xdc_runtime_System_abortSpin__E                                           
1001c897  xdc_runtime_System_exitSpin__E                                            
1001c899  ti_sysbios_family_arm_m3_Hwi_dispatch__I                                  
1001c969  ti_sysbios_family_arm_m3_TaskSupport_buildTaskStack                       
1001c9b5  ti_sysbios_family_arm_m3_Hwi_initStacks__E                                
1001c9fd  ti_sysbios_family_arm_m3_Hwi_excHandlerAsm__I                             
1001ca1d  ti_sysbios_family_xxx_Hwi_switchAndRunFunc                                
1001ca3b  ti_sysbios_family_arm_m3_Hwi_pendSV__I                                    
1001ca53  ti_sysbios_family_arm_m3_Hwi_return                                       
1001ca55  ti_sysbios_family_arm_m3_TaskSupport_glue                                 
1001ca65  ti_sysbios_family_arm_m3_TaskSupport_swap__E                              
1001ca6d  ti_sysbios_knl_Task_swapReturn                                            
1001ca97  ti_sysbios_rom_cortexm_cc13xx_CC13xx_getRevision__E                       
20000000  ti_sysbios_family_arm_m3_Hwi_ramVectors                                   
20000100  ti_sysbios_knl_Task_Module__state__V                                      
20000144  ti_sysbios_family_arm_m3_Hwi_Module__state__V                             
20000178  ti_sysbios_knl_Clock_Module__state__V                                     
200001a4  ti_sysbios_BIOS_Module__state__V                                          
200001c8  ti_sysbios_knl_Swi_Module__state__V                                       
200001e4  ti_sysbios_family_arm_cc26xx_Timer_Module__state__V                       
200001ec  ti_sysbios_family_arm_cc26xx_TimestampProvider_Module__state__V           
200001f0  xdc_runtime_Startup_Module__state__V                                      
200001f8  xdc_runtime_System_Module__state__V                                       
20000200  xdc_runtime_Memory_Module__state__V                                       
200004c0  PowerCC26XX_module                                                        
200005d0  pOverrides_hsm                                                            
20000630  pOverrides_lrm                                                            
2000068c  pOverrides_ook                                                            
20000740  pOverrides_fsk                                                            
200007e4  ti_sysbios_knl_Task_Object__table__V                                      
20000830  ti_sysbios_family_arm_cc26xx_Timer_Object__table__V                       
20000878  RF_pProp_fsk                                                              
2000087c  RF_pProp_lrm                                                              
20000880  RF_pProp_ook                                                              
20000884  RF_pProp_hsm                                                              
20000888  RF_pProp_2_4G_fsk                                                         
2000088c  RF_pCmdPropRadioDivSetup_fsk                                              
20000890  RF_pCmdPropRadioDivSetup_lrm                                              
20000894  RF_pCmdPropRadioDivSetup_ook                                              
20000898  RF_pCmdRadioSetup_hsm                                                     
2000089c  RF_pCmdPropRadioSetup_2_4G_fsk                                            
200008a0  RF_pCmdTxHS                                                               
200008a4  RF_pCmdRxHS                                                               
200008a8  RF_pCmdFs_preDef                                                          
200008ac  RF_pCmdPropTx_preDef                                                      
200008b0  RF_pCmdPropRxAdv_preDef                                                   
200008b4  ti_sysbios_gates_GateMutex_Object__table__V                               
200008ec  RF_cmdPropRxAdv_preDef                                                    
2000091c  ti_sysbios_knl_Swi_Module_State_0_readyQ__A                               
2000094c  ti_sysbios_knl_Swi_Object__table__V                                       
2000097c  ti_sysbios_knl_Task_Module_State_0_readyQ__A                              
200009ac  RF_cmdPropRadioDivSetup                                                   
200009d4  RF_cmdPropRadioDivSetup_fsk                                               
200009fc  RF_cmdPropRadioDivSetup_lrm                                               
20000a24  RF_cmdPropRadioDivSetup_ook                                               
20000a4c  RF_cmdRxHS                                                                
20000a70  ti_sysbios_knl_Clock_Object__table__V                                     
20000aac  RF_cmdFs                                                                  
20000ac4  RF_cmdFs_preDef                                                           
20000adc  RF_cmdPropTx                                                              
20000af4  RF_cmdPropTx_preDef                                                       
20000b0c  RF_cmdRadioSetup_hsm                                                      
20000b3c  shapeovr                                                                  
20000b54  ti_sysbios_family_arm_m3_Hwi_Object__table__V                             
20000b6c  ti_sysbios_heaps_HeapMem_Object__table__V                                 
20000b84  RF_cmdTxHS                                                                
20000b98  RF_prop                                                                   
20000ba8  RF_prop_fsk                                                               
20000bb8  RF_prop_hsm                                                               
20000bc8  RF_prop_lrm                                                               
20000bd8  RF_prop_ook                                                               
20000be8  gpioPinConfigs                                                            
20000c06  ti_sysbios_family_arm_m3_Hwi_Module_State_0_excActive__A                  
20000c08  _lock                                                                     
20000c0c  _unlock                                                                   
20000c10  gpioCallbackFunctions                                                     
20000c18  ti_sysbios_family_arm_m3_Hwi_Module__root__V                              
20000c20  ti_sysbios_gates_GateHwi_Module__root__V                                  
20000c28  ti_sysbios_gates_GateMutex_Module__root__V                                
20000c30  ti_sysbios_hal_Hwi_Module__root__V                                        
20000c38  ti_sysbios_heaps_HeapMem_Module__root__V                                  
20000c40  ti_sysbios_knl_Clock_Module__root__V                                      
20000c48  ti_sysbios_knl_Event_Module__root__V                                      
20000c50  ti_sysbios_knl_Mailbox_Module__root__V                                    
20000c58  ti_sysbios_knl_Queue_Module__root__V                                      
20000c60  ti_sysbios_knl_Semaphore_Module__root__V                                  
20000c68  ti_sysbios_knl_Swi_Module__root__V                                        
20000c70  ti_sysbios_knl_Task_Module__root__V                                       
20000c78  xdc_runtime_System_Module_State_0_atexitHandlers__A                       
20000c80  main_func_sp                                                              
20000c84  ti_sysbios_family_arm_m3_Hwi_Module_State_0_excContext__A                 
20000c88  ti_sysbios_family_arm_m3_Hwi_Module_State_0_excStack__A                   
20000c8c  ti_sysbios_knl_Task_Module_State_0_idleTask__A                            
20001898  ti_sysbios_knl_Task_Instance_State_0_stack__A                             
20001a98  uartCC26XXObjects                                                         
20001bc4  PIN_NumPins                                                               
20001c58  PIN_HandleTable                                                           
20001cd4  ti_sysbios_family_arm_m3_Hwi_dispatchTable                                
20001d9c  count                                                                     
200020b8  commissionTask                                                            
20002108  nodeRadioTask                                                             
20002158  nodeTask                                                                  
200022d8  fastReportTimeoutClock                                                    
200022fc  radioAccessSem                                                            
20002318  radioResultSem                                                            
200023a0  commissionEvent                                                           
200023b4  nodeEvent                                                                 
200023c8  radioOperationEvent                                                       
2000243c  driverlib_release_0_47555                                                 
2000243d  __primary_heap_start__                                                    
20004c00  __primary_heap_end__                                                      
20004c00  __stack                                                                   
20005000  __STACK_END                                                               
e000e000  ti_sysbios_family_arm_m3_Hwi_nvic                                         
ffffffff  __TI_pprof_out_hndl                                                       
ffffffff  __TI_prof_data_size                                                       
ffffffff  __TI_prof_data_start                                                      
ffffffff  __binit__                                                                 
ffffffff  __c_args__                                                                
ffffffff  binit                                                                     
UNDEFED   HwiP_restore                                                              
UNDEFED   SHT$$INIT_ARRAY$$Base                                                     
UNDEFED   SHT$$INIT_ARRAY$$Limit                                                    
UNDEFED   ti_sysbios_BIOS_RtsGateProxy_Handle__label__S__mangled__                  
UNDEFED   ti_sysbios_BIOS_RtsGateProxy_Object__delete__S__mangled__                 
UNDEFED   ti_sysbios_BIOS_RtsGateProxy_Params__init__S__mangled__                   
UNDEFED   ti_sysbios_BIOS_RtsGateProxy_query__E__mangled__                          
UNDEFED   ti_sysbios_hal_Hwi_HwiProxy_Module__startupDone__S__mangled__             
UNDEFED   ti_sysbios_hal_Hwi_HwiProxy_Object__delete__S__mangled__                  
UNDEFED   ti_sysbios_hal_Hwi_HwiProxy_Params__init__S__mangled__                    
UNDEFED   ti_sysbios_hal_Hwi_HwiProxy_disableInterrupt__E__mangled__                
UNDEFED   ti_sysbios_hal_Hwi_HwiProxy_enableInterrupt__E__mangled__                 
UNDEFED   ti_sysbios_hal_Hwi_HwiProxy_getStackInfo__E__mangled__                    
UNDEFED   ti_sysbios_hal_Hwi_HwiProxy_startup__E__mangled__                         
UNDEFED   ti_sysbios_hal_Hwi_HwiProxy_switchFromBootStack__E__mangled__             
UNDEFED   ti_sysbios_hal_Hwi_disableInterrupt__E                                    
UNDEFED   ti_sysbios_hal_Hwi_enableInterrupt__E                                     
UNDEFED   ti_sysbios_hal_Hwi_getStackInfo__E                                        
UNDEFED   ti_sysbios_hal_Hwi_startup__E                                             
UNDEFED   ti_sysbios_hal_Hwi_switchFromBootStack__E                                 
UNDEFED   ti_sysbios_heaps_HeapMem_Module_GateProxy_Handle__label__S__mangled__     
UNDEFED   ti_sysbios_heaps_HeapMem_Module_GateProxy_Object__delete__S__mangled__    
UNDEFED   ti_sysbios_heaps_HeapMem_Module_GateProxy_Params__init__S__mangled__      
UNDEFED   ti_sysbios_heaps_HeapMem_Module_GateProxy_query__E__mangled__             
UNDEFED   ti_sysbios_knl_Clock_TimerProxy_Module__startupDone__S__mangled__         
UNDEFED   ti_sysbios_knl_Clock_TimerProxy_startup__E__mangled__                     
UNDEFED   ti_sysbios_knl_Task_SupportProxy_Module__startupDone__S__mangled__        
UNDEFED   ti_sysbios_knl_Task_SupportProxy_getStackAlignment__E__mangled__          
UNDEFED   ti_sysbios_knl_Task_SupportProxy_start__E__mangled__                      
UNDEFED   ti_sysbios_knl_Task_SupportProxy_swap__E__mangled__                       
UNDEFED   xdc_runtime_Main_Module_GateProxy_Handle__label__S                        
UNDEFED   xdc_runtime_Main_Module_GateProxy_Object__delete__S                       
UNDEFED   xdc_runtime_Main_Module_GateProxy_query__E                                
UNDEFED   xdc_runtime_Memory_HeapProxy_Handle__label__S__mangled__                  
UNDEFED   xdc_runtime_Memory_HeapProxy_Object__delete__S__mangled__                 
UNDEFED   xdc_runtime_System_Module_GateProxy_Handle__label__S__mangled__           
UNDEFED   xdc_runtime_System_Module_GateProxy_Object__delete__S__mangled__          
UNDEFED   xdc_runtime_System_Module_GateProxy_query__E__mangled__                   
UNDEFED   xdc_runtime_System_SupportProxy_abort__E                                  
UNDEFED   xdc_runtime_System_SupportProxy_exit__E                                   
UNDEFED   xdc_runtime_Timestamp_SupportProxy_get64__E__mangled__                    
UNDEFED   xdc_runtime_Timestamp_SupportProxy_getFreq__E__mangled__                  
UNDEFED   xdc_runtime_Timestamp_get32__E                                            
UNDEFED   xdc_runtime_Timestamp_get64__E                                            
UNDEFED   xdc_runtime_Timestamp_getFreq__E                                          

[830 symbols]
